
main:     file format elf64-littleriscv


Disassembly of section .text:

0000000050201000 <_start>:
    50201000:	10401073          	csrw	sie,zero
    50201004:	14401073          	csrw	sip,zero
    50201008:	6299                	lui	t0,0x6
    5020100a:	1002b073          	csrc	sstatus,t0
    5020100e:	00006197          	auipc	gp,0x6
    50201012:	d6a18193          	addi	gp,gp,-662 # 50206d78 <__global_pointer$>
    50201016:	82c18693          	addi	a3,gp,-2004 # 502065a4 <_edata>
    5020101a:	00008717          	auipc	a4,0x8
    5020101e:	0b670713          	addi	a4,a4,182 # 502090d0 <__BSS_END__>
    50201022:	00e6d763          	bge	a3,a4,50201030 <clear_bss_done>

0000000050201026 <clear_bss>:
    50201026:	0006b023          	sd	zero,0(a3)
    5020102a:	06a1                	addi	a3,a3,8
    5020102c:	fee6cde3          	blt	a3,a4,50201026 <clear_bss>

0000000050201030 <clear_bss_done>:
    50201030:	00005217          	auipc	tp,0x5
    50201034:	3c820213          	addi	tp,tp,968 # 502063f8 <pid0_pcb>
    50201038:	00005117          	auipc	sp,0x5
    5020103c:	54012103          	lw	sp,1344(sp) # 50206578 <pid0_stack>
    50201040:	14001073          	csrw	sscratch,zero
    50201044:	00007517          	auipc	a0,0x7
    50201048:	68450513          	addi	a0,a0,1668 # 502086c8 <riscv_dtb>
    5020104c:	e10c                	sd	a1,0(a0)
    5020104e:	04d000ef          	jal	ra,5020189a <main>

0000000050201052 <loop>:
    50201052:	10500073          	wfi
    50201056:	bff5                	j	50201052 <loop>
    50201058:	0000                	unimp
	...

000000005020105c <setup_exception>:
    5020105c:	00000517          	auipc	a0,0x0
    50201060:	10850513          	addi	a0,a0,264 # 50201164 <exception_handler_entry>
    50201064:	10551073          	csrw	stvec,a0
    50201068:	02000293          	li	t0,32
    5020106c:	10429073          	csrw	sie,t0
    50201070:	8082                	ret
	...

0000000050201074 <enable_preempt>:
    50201074:	00008317          	auipc	t1,0x8
    50201078:	84433303          	ld	t1,-1980(t1) # 502088b8 <current_running>
    5020107c:	01033283          	ld	t0,16(t1)
    50201080:	00028863          	beqz	t0,50201090 <do_enable>
    50201084:	12fd                	addi	t0,t0,-1
    50201086:	00533823          	sd	t0,16(t1)
    5020108a:	00028363          	beqz	t0,50201090 <do_enable>
    5020108e:	8082                	ret

0000000050201090 <do_enable>:
    50201090:	fff04293          	not	t0,zero
    50201094:	1042a073          	csrs	sie,t0
    50201098:	8082                	ret
    5020109a:	0001                	nop

000000005020109c <disable_preempt>:
    5020109c:	10401073          	csrw	sie,zero
    502010a0:	00008317          	auipc	t1,0x8
    502010a4:	81833303          	ld	t1,-2024(t1) # 502088b8 <current_running>
    502010a8:	01033283          	ld	t0,16(t1)
    502010ac:	0285                	addi	t0,t0,1
    502010ae:	00533823          	sd	t0,16(t1)
    502010b2:	8082                	ret

00000000502010b4 <enable_interrupt>:
    502010b4:	4289                	li	t0,2
    502010b6:	1002a073          	csrs	sstatus,t0
    502010ba:	8082                	ret

00000000502010bc <disable_interrupt>:
    502010bc:	4289                	li	t0,2
    502010be:	1002a073          	csrs	sstatus,t0
    502010c2:	8082                	ret

00000000502010c4 <switch_to>:
    502010c4:	00053283          	ld	t0,0(a0)
    502010c8:	0022b423          	sd	sp,8(t0) # 6008 <_start-0x501faff8>
    502010cc:	8116                	mv	sp,t0
    502010ce:	e006                	sd	ra,0(sp)
    502010d0:	e822                	sd	s0,16(sp)
    502010d2:	ec26                	sd	s1,24(sp)
    502010d4:	f04a                	sd	s2,32(sp)
    502010d6:	f44e                	sd	s3,40(sp)
    502010d8:	f852                	sd	s4,48(sp)
    502010da:	fc56                	sd	s5,56(sp)
    502010dc:	e0da                	sd	s6,64(sp)
    502010de:	e4de                	sd	s7,72(sp)
    502010e0:	e8e2                	sd	s8,80(sp)
    502010e2:	ece6                	sd	s9,88(sp)
    502010e4:	f0ea                	sd	s10,96(sp)
    502010e6:	f4ee                	sd	s11,104(sp)
    502010e8:	0005b103          	ld	sp,0(a1)
    502010ec:	6082                	ld	ra,0(sp)
    502010ee:	6442                	ld	s0,16(sp)
    502010f0:	64e2                	ld	s1,24(sp)
    502010f2:	7902                	ld	s2,32(sp)
    502010f4:	79a2                	ld	s3,40(sp)
    502010f6:	7a42                	ld	s4,48(sp)
    502010f8:	7ae2                	ld	s5,56(sp)
    502010fa:	6b06                	ld	s6,64(sp)
    502010fc:	6ba6                	ld	s7,72(sp)
    502010fe:	6c46                	ld	s8,80(sp)
    50201100:	6ce6                	ld	s9,88(sp)
    50201102:	7d06                	ld	s10,96(sp)
    50201104:	7da6                	ld	s11,104(sp)
    50201106:	6122                	ld	sp,8(sp)
    50201108:	822e                	mv	tp,a1
    5020110a:	8082                	ret

000000005020110c <ret_from_exception>:
    5020110c:	00023103          	ld	sp,0(tp) # 0 <_start-0x50201000>
    50201110:	6165                	addi	sp,sp,112
    50201112:	6532                	ld	a0,264(sp)
    50201114:	6592                	ld	a1,256(sp)
    50201116:	14151073          	csrw	sepc,a0
    5020111a:	10059073          	csrw	sstatus,a1
    5020111e:	60a2                	ld	ra,8(sp)
    50201120:	61e2                	ld	gp,24(sp)
    50201122:	72a2                	ld	t0,40(sp)
    50201124:	7342                	ld	t1,48(sp)
    50201126:	73e2                	ld	t2,56(sp)
    50201128:	6406                	ld	s0,64(sp)
    5020112a:	64a6                	ld	s1,72(sp)
    5020112c:	6546                	ld	a0,80(sp)
    5020112e:	65e6                	ld	a1,88(sp)
    50201130:	7606                	ld	a2,96(sp)
    50201132:	76a6                	ld	a3,104(sp)
    50201134:	7746                	ld	a4,112(sp)
    50201136:	77e6                	ld	a5,120(sp)
    50201138:	680a                	ld	a6,128(sp)
    5020113a:	68aa                	ld	a7,136(sp)
    5020113c:	694a                	ld	s2,144(sp)
    5020113e:	69ea                	ld	s3,152(sp)
    50201140:	7a0a                	ld	s4,160(sp)
    50201142:	7aaa                	ld	s5,168(sp)
    50201144:	7b4a                	ld	s6,176(sp)
    50201146:	7bea                	ld	s7,184(sp)
    50201148:	6c0e                	ld	s8,192(sp)
    5020114a:	6cae                	ld	s9,200(sp)
    5020114c:	6d4e                	ld	s10,208(sp)
    5020114e:	6dee                	ld	s11,216(sp)
    50201150:	7e0e                	ld	t3,224(sp)
    50201152:	7eae                	ld	t4,232(sp)
    50201154:	7f4e                	ld	t5,240(sp)
    50201156:	7fee                	ld	t6,248(sp)
    50201158:	00823103          	ld	sp,8(tp) # 8 <_start-0x50200ff8>
    5020115c:	14021073          	csrw	sscratch,tp
    50201160:	10200073          	sret

0000000050201164 <exception_handler_entry>:
    50201164:	14021273          	csrrw	tp,sscratch,tp
    50201168:	00021663          	bnez	tp,50201174 <_save_context>

000000005020116c <_restore_kernel_tpsp>:
    5020116c:	14002273          	csrr	tp,sscratch
    50201170:	00223023          	sd	sp,0(tp) # 0 <_start-0x50201000>

0000000050201174 <_save_context>:
    50201174:	00223423          	sd	sp,8(tp) # 8 <_start-0x50200ff8>
    50201178:	00023103          	ld	sp,0(tp) # 0 <_start-0x50201000>
    5020117c:	6165                	addi	sp,sp,112
    5020117e:	e406                	sd	ra,8(sp)
    50201180:	e80a                	sd	sp,16(sp)
    50201182:	ec0e                	sd	gp,24(sp)
    50201184:	f416                	sd	t0,40(sp)
    50201186:	f81a                	sd	t1,48(sp)
    50201188:	fc1e                	sd	t2,56(sp)
    5020118a:	e0a2                	sd	s0,64(sp)
    5020118c:	e4a6                	sd	s1,72(sp)
    5020118e:	e8aa                	sd	a0,80(sp)
    50201190:	ecae                	sd	a1,88(sp)
    50201192:	f0b2                	sd	a2,96(sp)
    50201194:	f4b6                	sd	a3,104(sp)
    50201196:	f8ba                	sd	a4,112(sp)
    50201198:	fcbe                	sd	a5,120(sp)
    5020119a:	e142                	sd	a6,128(sp)
    5020119c:	e546                	sd	a7,136(sp)
    5020119e:	e94a                	sd	s2,144(sp)
    502011a0:	ed4e                	sd	s3,152(sp)
    502011a2:	f152                	sd	s4,160(sp)
    502011a4:	f556                	sd	s5,168(sp)
    502011a6:	f95a                	sd	s6,176(sp)
    502011a8:	fd5e                	sd	s7,184(sp)
    502011aa:	e1e2                	sd	s8,192(sp)
    502011ac:	e5e6                	sd	s9,200(sp)
    502011ae:	e9ea                	sd	s10,208(sp)
    502011b0:	edee                	sd	s11,216(sp)
    502011b2:	f1f2                	sd	t3,224(sp)
    502011b4:	f5f6                	sd	t4,232(sp)
    502011b6:	f9fa                	sd	t5,240(sp)
    502011b8:	fdfe                	sd	t6,248(sp)
    502011ba:	000462b7          	lui	t0,0x46
    502011be:	1002a073          	csrs	sstatus,t0
    502011c2:	10002573          	csrr	a0,sstatus
    502011c6:	141025f3          	csrr	a1,sepc
    502011ca:	14302673          	csrr	a2,stval
    502011ce:	142026f3          	csrr	a3,scause
    502011d2:	e22a                	sd	a0,256(sp)
    502011d4:	e62e                	sd	a1,264(sp)
    502011d6:	ea32                	sd	a2,272(sp)
    502011d8:	ee36                	sd	a3,280(sp)
    502011da:	14002573          	csrr	a0,sscratch
    502011de:	f02a                	sd	a0,32(sp)
    502011e0:	7159                	addi	sp,sp,-112
    502011e2:	14001073          	csrw	sscratch,zero
    502011e6:	00006197          	auipc	gp,0x6
    502011ea:	b9218193          	addi	gp,gp,-1134 # 50206d78 <__global_pointer$>
    502011ee:	850a                	mv	a0,sp
    502011f0:	07050513          	addi	a0,a0,112
    502011f4:	143025f3          	csrr	a1,stval
    502011f8:	14202673          	csrr	a2,scause
    502011fc:	041000ef          	jal	ra,50201a3c <interrupt_helper>
    50201200:	00000097          	auipc	ra,0x0
    50201204:	f0c08093          	addi	ra,ra,-244 # 5020110c <ret_from_exception>
    50201208:	8082                	ret
    5020120a:	0001                	nop

000000005020120c <sys_fork>:
    5020120c:	48ad                	li	a7,11
    5020120e:	4501                	li	a0,0
    50201210:	4581                	li	a1,0
    50201212:	4601                	li	a2,0
    50201214:	00000073          	ecall
    50201218:	8082                	ret
	...

000000005020121c <sbi_console_putstr>:
    5020121c:	1101                	addi	sp,sp,-32
    5020121e:	ec22                	sd	s0,24(sp)
    50201220:	1000                	addi	s0,sp,32
    50201222:	fea43423          	sd	a0,-24(s0)
    50201226:	fe843783          	ld	a5,-24(s0)
    5020122a:	853e                	mv	a0,a5
    5020122c:	4581                	li	a1,0
    5020122e:	4601                	li	a2,0
    50201230:	48a5                	li	a7,9
    50201232:	00000073          	ecall
    50201236:	0001                	nop
    50201238:	6462                	ld	s0,24(sp)
    5020123a:	6105                	addi	sp,sp,32
    5020123c:	8082                	ret

000000005020123e <sbi_console_putchar>:
    5020123e:	1101                	addi	sp,sp,-32
    50201240:	ec22                	sd	s0,24(sp)
    50201242:	1000                	addi	s0,sp,32
    50201244:	87aa                	mv	a5,a0
    50201246:	fef42623          	sw	a5,-20(s0)
    5020124a:	fec42783          	lw	a5,-20(s0)
    5020124e:	853e                	mv	a0,a5
    50201250:	4581                	li	a1,0
    50201252:	4601                	li	a2,0
    50201254:	4885                	li	a7,1
    50201256:	00000073          	ecall
    5020125a:	0001                	nop
    5020125c:	6462                	ld	s0,24(sp)
    5020125e:	6105                	addi	sp,sp,32
    50201260:	8082                	ret

0000000050201262 <port_write_ch>:
    50201262:	1101                	addi	sp,sp,-32
    50201264:	ec06                	sd	ra,24(sp)
    50201266:	e822                	sd	s0,16(sp)
    50201268:	1000                	addi	s0,sp,32
    5020126a:	87aa                	mv	a5,a0
    5020126c:	fef407a3          	sb	a5,-17(s0)
    50201270:	fef44783          	lbu	a5,-17(s0)
    50201274:	2781                	sext.w	a5,a5
    50201276:	853e                	mv	a0,a5
    50201278:	fc7ff0ef          	jal	ra,5020123e <sbi_console_putchar>
    5020127c:	0001                	nop
    5020127e:	60e2                	ld	ra,24(sp)
    50201280:	6442                	ld	s0,16(sp)
    50201282:	6105                	addi	sp,sp,32
    50201284:	8082                	ret

0000000050201286 <port_write>:
    50201286:	1101                	addi	sp,sp,-32
    50201288:	ec06                	sd	ra,24(sp)
    5020128a:	e822                	sd	s0,16(sp)
    5020128c:	1000                	addi	s0,sp,32
    5020128e:	fea43423          	sd	a0,-24(s0)
    50201292:	fe843503          	ld	a0,-24(s0)
    50201296:	f87ff0ef          	jal	ra,5020121c <sbi_console_putstr>
    5020129a:	0001                	nop
    5020129c:	60e2                	ld	ra,24(sp)
    5020129e:	6442                	ld	s0,16(sp)
    502012a0:	6105                	addi	sp,sp,32
    502012a2:	8082                	ret

00000000502012a4 <__list_add>:
    502012a4:	7179                	addi	sp,sp,-48
    502012a6:	f422                	sd	s0,40(sp)
    502012a8:	1800                	addi	s0,sp,48
    502012aa:	fea43423          	sd	a0,-24(s0)
    502012ae:	feb43023          	sd	a1,-32(s0)
    502012b2:	fcc43c23          	sd	a2,-40(s0)
    502012b6:	fd843783          	ld	a5,-40(s0)
    502012ba:	fe843703          	ld	a4,-24(s0)
    502012be:	e798                	sd	a4,8(a5)
    502012c0:	fe843783          	ld	a5,-24(s0)
    502012c4:	fd843703          	ld	a4,-40(s0)
    502012c8:	e398                	sd	a4,0(a5)
    502012ca:	fe843783          	ld	a5,-24(s0)
    502012ce:	fe043703          	ld	a4,-32(s0)
    502012d2:	e798                	sd	a4,8(a5)
    502012d4:	fe043783          	ld	a5,-32(s0)
    502012d8:	fe843703          	ld	a4,-24(s0)
    502012dc:	e398                	sd	a4,0(a5)
    502012de:	0001                	nop
    502012e0:	7422                	ld	s0,40(sp)
    502012e2:	6145                	addi	sp,sp,48
    502012e4:	8082                	ret

00000000502012e6 <list_add_tail>:
    502012e6:	1101                	addi	sp,sp,-32
    502012e8:	ec06                	sd	ra,24(sp)
    502012ea:	e822                	sd	s0,16(sp)
    502012ec:	1000                	addi	s0,sp,32
    502012ee:	fea43423          	sd	a0,-24(s0)
    502012f2:	feb43023          	sd	a1,-32(s0)
    502012f6:	fe043783          	ld	a5,-32(s0)
    502012fa:	679c                	ld	a5,8(a5)
    502012fc:	fe043603          	ld	a2,-32(s0)
    50201300:	85be                	mv	a1,a5
    50201302:	fe843503          	ld	a0,-24(s0)
    50201306:	f9fff0ef          	jal	ra,502012a4 <__list_add>
    5020130a:	0001                	nop
    5020130c:	60e2                	ld	ra,24(sp)
    5020130e:	6442                	ld	s0,16(sp)
    50201310:	6105                	addi	sp,sp,32
    50201312:	8082                	ret

0000000050201314 <sbi_console_getchar>:
    50201314:	1141                	addi	sp,sp,-16
    50201316:	e422                	sd	s0,8(sp)
    50201318:	0800                	addi	s0,sp,16
    5020131a:	4501                	li	a0,0
    5020131c:	4581                	li	a1,0
    5020131e:	4601                	li	a2,0
    50201320:	4889                	li	a7,2
    50201322:	00000073          	ecall
    50201326:	87aa                	mv	a5,a0
    50201328:	2781                	sext.w	a5,a5
    5020132a:	853e                	mv	a0,a5
    5020132c:	6422                	ld	s0,8(sp)
    5020132e:	0141                	addi	sp,sp,16
    50201330:	8082                	ret

0000000050201332 <sbi_read_fdt>:
    50201332:	1101                	addi	sp,sp,-32
    50201334:	ec22                	sd	s0,24(sp)
    50201336:	1000                	addi	s0,sp,32
    50201338:	87aa                	mv	a5,a0
    5020133a:	fef42623          	sw	a5,-20(s0)
    5020133e:	fec42783          	lw	a5,-20(s0)
    50201342:	853e                	mv	a0,a5
    50201344:	4581                	li	a1,0
    50201346:	4601                	li	a2,0
    50201348:	48b1                	li	a7,12
    5020134a:	00000073          	ecall
    5020134e:	87aa                	mv	a5,a0
    50201350:	2781                	sext.w	a5,a5
    50201352:	853e                	mv	a0,a5
    50201354:	6462                	ld	s0,24(sp)
    50201356:	6105                	addi	sp,sp,32
    50201358:	8082                	ret

000000005020135a <init_allocated>:
    5020135a:	1101                	addi	sp,sp,-32
    5020135c:	ec22                	sd	s0,24(sp)
    5020135e:	1000                	addi	s0,sp,32
    50201360:	fe042623          	sw	zero,-20(s0)
    50201364:	a005                	j	50201384 <init_allocated+0x2a>
    50201366:	00007717          	auipc	a4,0x7
    5020136a:	21a70713          	addi	a4,a4,538 # 50208580 <pid_allocated>
    5020136e:	fec42783          	lw	a5,-20(s0)
    50201372:	078a                	slli	a5,a5,0x2
    50201374:	97ba                	add	a5,a5,a4
    50201376:	0007a023          	sw	zero,0(a5)
    5020137a:	fec42783          	lw	a5,-20(s0)
    5020137e:	2785                	addiw	a5,a5,1
    50201380:	fef42623          	sw	a5,-20(s0)
    50201384:	fec42783          	lw	a5,-20(s0)
    50201388:	0007871b          	sext.w	a4,a5
    5020138c:	47c1                	li	a5,16
    5020138e:	fce7dce3          	bge	a5,a4,50201366 <init_allocated+0xc>
    50201392:	0001                	nop
    50201394:	0001                	nop
    50201396:	6462                	ld	s0,24(sp)
    50201398:	6105                	addi	sp,sp,32
    5020139a:	8082                	ret

000000005020139c <find_pid>:
    5020139c:	1101                	addi	sp,sp,-32
    5020139e:	ec22                	sd	s0,24(sp)
    502013a0:	1000                	addi	s0,sp,32
    502013a2:	4785                	li	a5,1
    502013a4:	fef42623          	sw	a5,-20(s0)
    502013a8:	a01d                	j	502013ce <find_pid+0x32>
    502013aa:	00007717          	auipc	a4,0x7
    502013ae:	1d670713          	addi	a4,a4,470 # 50208580 <pid_allocated>
    502013b2:	fec42783          	lw	a5,-20(s0)
    502013b6:	078a                	slli	a5,a5,0x2
    502013b8:	97ba                	add	a5,a5,a4
    502013ba:	439c                	lw	a5,0(a5)
    502013bc:	e781                	bnez	a5,502013c4 <find_pid+0x28>
    502013be:	fec42783          	lw	a5,-20(s0)
    502013c2:	a831                	j	502013de <find_pid+0x42>
    502013c4:	fec42783          	lw	a5,-20(s0)
    502013c8:	2785                	addiw	a5,a5,1
    502013ca:	fef42623          	sw	a5,-20(s0)
    502013ce:	fec42783          	lw	a5,-20(s0)
    502013d2:	0007871b          	sext.w	a4,a5
    502013d6:	47c1                	li	a5,16
    502013d8:	fce7d9e3          	bge	a5,a4,502013aa <find_pid+0xe>
    502013dc:	57fd                	li	a5,-1
    502013de:	853e                	mv	a0,a5
    502013e0:	6462                	ld	s0,24(sp)
    502013e2:	6105                	addi	sp,sp,32
    502013e4:	8082                	ret

00000000502013e6 <init_all_stacks>:
    502013e6:	1101                	addi	sp,sp,-32
    502013e8:	ec06                	sd	ra,24(sp)
    502013ea:	e822                	sd	s0,16(sp)
    502013ec:	1000                	addi	s0,sp,32
    502013ee:	4785                	li	a5,1
    502013f0:	fef42623          	sw	a5,-20(s0)
    502013f4:	a0a1                	j	5020143c <init_all_stacks+0x56>
    502013f6:	4505                	li	a0,1
    502013f8:	0df010ef          	jal	ra,50202cd6 <allocPage>
    502013fc:	872a                	mv	a4,a0
    502013fe:	6785                	lui	a5,0x1
    50201400:	973e                	add	a4,a4,a5
    50201402:	00007697          	auipc	a3,0x7
    50201406:	0fe68693          	addi	a3,a3,254 # 50208500 <user_stack>
    5020140a:	fec42783          	lw	a5,-20(s0)
    5020140e:	078e                	slli	a5,a5,0x3
    50201410:	97b6                	add	a5,a5,a3
    50201412:	e398                	sd	a4,0(a5)
    50201414:	4505                	li	a0,1
    50201416:	0c1010ef          	jal	ra,50202cd6 <allocPage>
    5020141a:	872a                	mv	a4,a0
    5020141c:	6785                	lui	a5,0x1
    5020141e:	973e                	add	a4,a4,a5
    50201420:	00007697          	auipc	a3,0x7
    50201424:	1a868693          	addi	a3,a3,424 # 502085c8 <kernel_stack>
    50201428:	fec42783          	lw	a5,-20(s0)
    5020142c:	078e                	slli	a5,a5,0x3
    5020142e:	97b6                	add	a5,a5,a3
    50201430:	e398                	sd	a4,0(a5)
    50201432:	fec42783          	lw	a5,-20(s0)
    50201436:	2785                	addiw	a5,a5,1
    50201438:	fef42623          	sw	a5,-20(s0)
    5020143c:	fec42783          	lw	a5,-20(s0)
    50201440:	0007871b          	sext.w	a4,a5
    50201444:	47c1                	li	a5,16
    50201446:	fae7d8e3          	bge	a5,a4,502013f6 <init_all_stacks+0x10>
    5020144a:	0001                	nop
    5020144c:	0001                	nop
    5020144e:	60e2                	ld	ra,24(sp)
    50201450:	6442                	ld	s0,16(sp)
    50201452:	6105                	addi	sp,sp,32
    50201454:	8082                	ret

0000000050201456 <init_pcb_stack>:
    50201456:	715d                	addi	sp,sp,-80
    50201458:	e4a2                	sd	s0,72(sp)
    5020145a:	0880                	addi	s0,sp,80
    5020145c:	fca43423          	sd	a0,-56(s0)
    50201460:	fcb43023          	sd	a1,-64(s0)
    50201464:	fac43c23          	sd	a2,-72(s0)
    50201468:	fad43823          	sd	a3,-80(s0)
    5020146c:	fc843783          	ld	a5,-56(s0)
    50201470:	ee078793          	addi	a5,a5,-288 # ee0 <_start-0x50200120>
    50201474:	fef43023          	sd	a5,-32(s0)
    50201478:	fb043783          	ld	a5,-80(s0)
    5020147c:	639c                	ld	a5,0(a5)
    5020147e:	ee078713          	addi	a4,a5,-288
    50201482:	fb043783          	ld	a5,-80(s0)
    50201486:	e398                	sd	a4,0(a5)
    50201488:	fe042623          	sw	zero,-20(s0)
    5020148c:	a831                	j	502014a8 <init_pcb_stack+0x52>
    5020148e:	fe043703          	ld	a4,-32(s0)
    50201492:	fec42783          	lw	a5,-20(s0)
    50201496:	078e                	slli	a5,a5,0x3
    50201498:	97ba                	add	a5,a5,a4
    5020149a:	0007b023          	sd	zero,0(a5)
    5020149e:	fec42783          	lw	a5,-20(s0)
    502014a2:	2785                	addiw	a5,a5,1
    502014a4:	fef42623          	sw	a5,-20(s0)
    502014a8:	fec42783          	lw	a5,-20(s0)
    502014ac:	0007871b          	sext.w	a4,a5
    502014b0:	47fd                	li	a5,31
    502014b2:	fce7dee3          	bge	a5,a4,5020148e <init_pcb_stack+0x38>
    502014b6:	fe043783          	ld	a5,-32(s0)
    502014ba:	fb843703          	ld	a4,-72(s0)
    502014be:	e798                	sd	a4,8(a5)
    502014c0:	fb043783          	ld	a5,-80(s0)
    502014c4:	6798                	ld	a4,8(a5)
    502014c6:	fe043783          	ld	a5,-32(s0)
    502014ca:	eb98                	sd	a4,16(a5)
    502014cc:	fe043783          	ld	a5,-32(s0)
    502014d0:	fb843703          	ld	a4,-72(s0)
    502014d4:	10e7b423          	sd	a4,264(a5)
    502014d8:	fe043783          	ld	a5,-32(s0)
    502014dc:	1007b023          	sd	zero,256(a5)
    502014e0:	fb043783          	ld	a5,-80(s0)
    502014e4:	5b9c                	lw	a5,48(a5)
    502014e6:	0017b793          	seqz	a5,a5
    502014ea:	0ff7f713          	andi	a4,a5,255
    502014ee:	fb043783          	ld	a5,-80(s0)
    502014f2:	5b9c                	lw	a5,48(a5)
    502014f4:	86be                	mv	a3,a5
    502014f6:	4785                	li	a5,1
    502014f8:	40f687b3          	sub	a5,a3,a5
    502014fc:	0017b793          	seqz	a5,a5
    50201500:	0ff7f793          	andi	a5,a5,255
    50201504:	8fd9                	or	a5,a5,a4
    50201506:	0ff7f793          	andi	a5,a5,255
    5020150a:	c38d                	beqz	a5,5020152c <init_pcb_stack+0xd6>
    5020150c:	fe043783          	ld	a5,-32(s0)
    50201510:	1007b783          	ld	a5,256(a5)
    50201514:	1007e713          	ori	a4,a5,256
    50201518:	fe043783          	ld	a5,-32(s0)
    5020151c:	10e7b023          	sd	a4,256(a5)
    50201520:	fb043783          	ld	a5,-80(s0)
    50201524:	6398                	ld	a4,0(a5)
    50201526:	fe043783          	ld	a5,-32(s0)
    5020152a:	eb98                	sd	a4,16(a5)
    5020152c:	fb043783          	ld	a5,-80(s0)
    50201530:	639c                	ld	a5,0(a5)
    50201532:	f9078713          	addi	a4,a5,-112
    50201536:	fb043783          	ld	a5,-80(s0)
    5020153a:	e398                	sd	a4,0(a5)
    5020153c:	fb043783          	ld	a5,-80(s0)
    50201540:	639c                	ld	a5,0(a5)
    50201542:	fcf43c23          	sd	a5,-40(s0)
    50201546:	fe042423          	sw	zero,-24(s0)
    5020154a:	a831                	j	50201566 <init_pcb_stack+0x110>
    5020154c:	fd843703          	ld	a4,-40(s0)
    50201550:	fe842783          	lw	a5,-24(s0)
    50201554:	078e                	slli	a5,a5,0x3
    50201556:	97ba                	add	a5,a5,a4
    50201558:	0007b023          	sd	zero,0(a5)
    5020155c:	fe842783          	lw	a5,-24(s0)
    50201560:	2785                	addiw	a5,a5,1
    50201562:	fef42423          	sw	a5,-24(s0)
    50201566:	fe842783          	lw	a5,-24(s0)
    5020156a:	0007871b          	sext.w	a4,a5
    5020156e:	47b5                	li	a5,13
    50201570:	fce7dee3          	bge	a5,a4,5020154c <init_pcb_stack+0xf6>
    50201574:	fb043783          	ld	a5,-80(s0)
    50201578:	5b9c                	lw	a5,48(a5)
    5020157a:	873e                	mv	a4,a5
    5020157c:	4789                	li	a5,2
    5020157e:	40f707b3          	sub	a5,a4,a5
    50201582:	0017b793          	seqz	a5,a5
    50201586:	0ff7f713          	andi	a4,a5,255
    5020158a:	fb043783          	ld	a5,-80(s0)
    5020158e:	5b9c                	lw	a5,48(a5)
    50201590:	86be                	mv	a3,a5
    50201592:	478d                	li	a5,3
    50201594:	40f687b3          	sub	a5,a3,a5
    50201598:	0017b793          	seqz	a5,a5
    5020159c:	0ff7f793          	andi	a5,a5,255
    502015a0:	8fd9                	or	a5,a5,a4
    502015a2:	0ff7f793          	andi	a5,a5,255
    502015a6:	cb89                	beqz	a5,502015b8 <init_pcb_stack+0x162>
    502015a8:	00000717          	auipc	a4,0x0
    502015ac:	b6470713          	addi	a4,a4,-1180 # 5020110c <ret_from_exception>
    502015b0:	fd843783          	ld	a5,-40(s0)
    502015b4:	e398                	sd	a4,0(a5)
    502015b6:	a031                	j	502015c2 <init_pcb_stack+0x16c>
    502015b8:	fd843783          	ld	a5,-40(s0)
    502015bc:	fb843703          	ld	a4,-72(s0)
    502015c0:	e398                	sd	a4,0(a5)
    502015c2:	fb043783          	ld	a5,-80(s0)
    502015c6:	6398                	ld	a4,0(a5)
    502015c8:	fd843783          	ld	a5,-40(s0)
    502015cc:	e798                	sd	a4,8(a5)
    502015ce:	0001                	nop
    502015d0:	6426                	ld	s0,72(sp)
    502015d2:	6161                	addi	sp,sp,80
    502015d4:	8082                	ret

00000000502015d6 <init_pcb>:
    502015d6:	7139                	addi	sp,sp,-64
    502015d8:	fc06                	sd	ra,56(sp)
    502015da:	f822                	sd	s0,48(sp)
    502015dc:	0080                	addi	s0,sp,64
    502015de:	fca43c23          	sd	a0,-40(s0)
    502015e2:	fcb43823          	sd	a1,-48(s0)
    502015e6:	87b2                	mv	a5,a2
    502015e8:	fcf42623          	sw	a5,-52(s0)
    502015ec:	db1ff0ef          	jal	ra,5020139c <find_pid>
    502015f0:	87aa                	mv	a5,a0
    502015f2:	fef42623          	sw	a5,-20(s0)
    502015f6:	00007717          	auipc	a4,0x7
    502015fa:	f8a70713          	addi	a4,a4,-118 # 50208580 <pid_allocated>
    502015fe:	fec42783          	lw	a5,-20(s0)
    50201602:	078a                	slli	a5,a5,0x2
    50201604:	97ba                	add	a5,a5,a4
    50201606:	4705                	li	a4,1
    50201608:	c398                	sw	a4,0(a5)
    5020160a:	fec42783          	lw	a5,-20(s0)
    5020160e:	37fd                	addiw	a5,a5,-1
    50201610:	0007871b          	sext.w	a4,a5
    50201614:	87ba                	mv	a5,a4
    50201616:	0786                	slli	a5,a5,0x1
    50201618:	97ba                	add	a5,a5,a4
    5020161a:	0796                	slli	a5,a5,0x5
    5020161c:	00007717          	auipc	a4,0x7
    50201620:	2a470713          	addi	a4,a4,676 # 502088c0 <pcb>
    50201624:	97ba                	add	a5,a5,a4
    50201626:	fef43023          	sd	a5,-32(s0)
    5020162a:	fe043783          	ld	a5,-32(s0)
    5020162e:	fec42703          	lw	a4,-20(s0)
    50201632:	d798                	sw	a4,40(a5)
    50201634:	00007797          	auipc	a5,0x7
    50201638:	28478793          	addi	a5,a5,644 # 502088b8 <current_running>
    5020163c:	639c                	ld	a5,0(a5)
    5020163e:	5798                	lw	a4,40(a5)
    50201640:	fe043783          	ld	a5,-32(s0)
    50201644:	d7d8                	sw	a4,44(a5)
    50201646:	fe043783          	ld	a5,-32(s0)
    5020164a:	4709                	li	a4,2
    5020164c:	df98                	sw	a4,56(a5)
    5020164e:	fd843783          	ld	a5,-40(s0)
    50201652:	4798                	lw	a4,8(a5)
    50201654:	fe043783          	ld	a5,-32(s0)
    50201658:	db98                	sw	a4,48(a5)
    5020165a:	fe043783          	ld	a5,-32(s0)
    5020165e:	0007b823          	sd	zero,16(a5)
    50201662:	4505                	li	a0,1
    50201664:	672010ef          	jal	ra,50202cd6 <allocPage>
    50201668:	872a                	mv	a4,a0
    5020166a:	6785                	lui	a5,0x1
    5020166c:	973e                	add	a4,a4,a5
    5020166e:	fe043783          	ld	a5,-32(s0)
    50201672:	e798                	sd	a4,8(a5)
    50201674:	4505                	li	a0,1
    50201676:	660010ef          	jal	ra,50202cd6 <allocPage>
    5020167a:	872a                	mv	a4,a0
    5020167c:	6785                	lui	a5,0x1
    5020167e:	973e                	add	a4,a4,a5
    50201680:	fe043783          	ld	a5,-32(s0)
    50201684:	e398                	sd	a4,0(a5)
    50201686:	fe043783          	ld	a5,-32(s0)
    5020168a:	0407b823          	sd	zero,80(a5) # 1050 <_start-0x501fffb0>
    5020168e:	fe043783          	ld	a5,-32(s0)
    50201692:	fcc42703          	lw	a4,-52(s0)
    50201696:	dbd8                	sw	a4,52(a5)
    50201698:	fe043783          	ld	a5,-32(s0)
    5020169c:	6398                	ld	a4,0(a5)
    5020169e:	fe043783          	ld	a5,-32(s0)
    502016a2:	678c                	ld	a1,8(a5)
    502016a4:	fd843783          	ld	a5,-40(s0)
    502016a8:	639c                	ld	a5,0(a5)
    502016aa:	fe043683          	ld	a3,-32(s0)
    502016ae:	863e                	mv	a2,a5
    502016b0:	853a                	mv	a0,a4
    502016b2:	da5ff0ef          	jal	ra,50201456 <init_pcb_stack>
    502016b6:	fe043783          	ld	a5,-32(s0)
    502016ba:	07e1                	addi	a5,a5,24
    502016bc:	00005597          	auipc	a1,0x5
    502016c0:	d9c58593          	addi	a1,a1,-612 # 50206458 <ready_queue>
    502016c4:	853e                	mv	a0,a5
    502016c6:	c21ff0ef          	jal	ra,502012e6 <list_add_tail>
    502016ca:	fec42783          	lw	a5,-20(s0)
    502016ce:	853e                	mv	a0,a5
    502016d0:	70e2                	ld	ra,56(sp)
    502016d2:	7442                	ld	s0,48(sp)
    502016d4:	6121                	addi	sp,sp,64
    502016d6:	8082                	ret

00000000502016d8 <init_shell>:
    502016d8:	1101                	addi	sp,sp,-32
    502016da:	ec06                	sd	ra,24(sp)
    502016dc:	e822                	sd	s0,16(sp)
    502016de:	1000                	addi	s0,sp,32
    502016e0:	fe043023          	sd	zero,-32(s0)
    502016e4:	fe043423          	sd	zero,-24(s0)
    502016e8:	00003797          	auipc	a5,0x3
    502016ec:	08a78793          	addi	a5,a5,138 # 50204772 <test_shell>
    502016f0:	fef43023          	sd	a5,-32(s0)
    502016f4:	4789                	li	a5,2
    502016f6:	fef42423          	sw	a5,-24(s0)
    502016fa:	fe040793          	addi	a5,s0,-32
    502016fe:	4605                	li	a2,1
    50201700:	4581                	li	a1,0
    50201702:	853e                	mv	a0,a5
    50201704:	ed3ff0ef          	jal	ra,502015d6 <init_pcb>
    50201708:	0001                	nop
    5020170a:	60e2                	ld	ra,24(sp)
    5020170c:	6442                	ld	s0,16(sp)
    5020170e:	6105                	addi	sp,sp,32
    50201710:	8082                	ret

0000000050201712 <init_syscall>:
    50201712:	1141                	addi	sp,sp,-16
    50201714:	e422                	sd	s0,8(sp)
    50201716:	0800                	addi	s0,sp,16
    50201718:	00007797          	auipc	a5,0x7
    5020171c:	7a878793          	addi	a5,a5,1960 # 50208ec0 <syscall>
    50201720:	00001717          	auipc	a4,0x1
    50201724:	fe070713          	addi	a4,a4,-32 # 50202700 <do_sleep>
    50201728:	eb98                	sd	a4,16(a5)
    5020172a:	00007797          	auipc	a5,0x7
    5020172e:	79678793          	addi	a5,a5,1942 # 50208ec0 <syscall>
    50201732:	00001717          	auipc	a4,0x1
    50201736:	eb870713          	addi	a4,a4,-328 # 502025ea <do_scheduler>
    5020173a:	ff98                	sd	a4,56(a5)
    5020173c:	00007797          	auipc	a5,0x7
    50201740:	78478793          	addi	a5,a5,1924 # 50208ec0 <syscall>
    50201744:	00001717          	auipc	a4,0x1
    50201748:	9f870713          	addi	a4,a4,-1544 # 5020213c <do_mutex_lock_init>
    5020174c:	e3b8                	sd	a4,64(a5)
    5020174e:	00007797          	auipc	a5,0x7
    50201752:	77278793          	addi	a5,a5,1906 # 50208ec0 <syscall>
    50201756:	00001717          	auipc	a4,0x1
    5020175a:	a8470713          	addi	a4,a4,-1404 # 502021da <do_mutex_lock_acquire>
    5020175e:	e7b8                	sd	a4,72(a5)
    50201760:	00007797          	auipc	a5,0x7
    50201764:	76078793          	addi	a5,a5,1888 # 50208ec0 <syscall>
    50201768:	00001717          	auipc	a4,0x1
    5020176c:	b3a70713          	addi	a4,a4,-1222 # 502022a2 <do_mutex_lock_release>
    50201770:	ebb8                	sd	a4,80(a5)
    50201772:	00007797          	auipc	a5,0x7
    50201776:	74e78793          	addi	a5,a5,1870 # 50208ec0 <syscall>
    5020177a:	00001717          	auipc	a4,0x1
    5020177e:	c9c70713          	addi	a4,a4,-868 # 50202416 <do_fork>
    50201782:	efb8                	sd	a4,88(a5)
    50201784:	00007797          	auipc	a5,0x7
    50201788:	73c78793          	addi	a5,a5,1852 # 50208ec0 <syscall>
    5020178c:	00000717          	auipc	a4,0x0
    50201790:	b8870713          	addi	a4,a4,-1144 # 50201314 <sbi_console_getchar>
    50201794:	f3b8                	sd	a4,96(a5)
    50201796:	00007797          	auipc	a5,0x7
    5020179a:	72a78793          	addi	a5,a5,1834 # 50208ec0 <syscall>
    5020179e:	00001717          	auipc	a4,0x1
    502017a2:	0fa70713          	addi	a4,a4,250 # 50202898 <do_prior>
    502017a6:	f7b8                	sd	a4,104(a5)
    502017a8:	00007797          	auipc	a5,0x7
    502017ac:	71878793          	addi	a5,a5,1816 # 50208ec0 <syscall>
    502017b0:	00000717          	auipc	a4,0x0
    502017b4:	76c70713          	addi	a4,a4,1900 # 50201f1c <screen_write>
    502017b8:	f3d8                	sd	a4,160(a5)
    502017ba:	00007797          	auipc	a5,0x7
    502017be:	70678793          	addi	a5,a5,1798 # 50208ec0 <syscall>
    502017c2:	00000717          	auipc	a4,0x0
    502017c6:	6f670713          	addi	a4,a4,1782 # 50201eb8 <screen_move_cursor>
    502017ca:	fbd8                	sd	a4,176(a5)
    502017cc:	00007797          	auipc	a5,0x7
    502017d0:	6f478793          	addi	a5,a5,1780 # 50208ec0 <syscall>
    502017d4:	00000717          	auipc	a4,0x0
    502017d8:	7a870713          	addi	a4,a4,1960 # 50201f7c <screen_reflush>
    502017dc:	ffd8                	sd	a4,184(a5)
    502017de:	00007797          	auipc	a5,0x7
    502017e2:	6e278793          	addi	a5,a5,1762 # 50208ec0 <syscall>
    502017e6:	00000717          	auipc	a4,0x0
    502017ea:	63870713          	addi	a4,a4,1592 # 50201e1e <screen_clear>
    502017ee:	e3f8                	sd	a4,192(a5)
    502017f0:	00007797          	auipc	a5,0x7
    502017f4:	6d078793          	addi	a5,a5,1744 # 50208ec0 <syscall>
    502017f8:	00001717          	auipc	a4,0x1
    502017fc:	1d670713          	addi	a4,a4,470 # 502029ce <process_show>
    50201800:	fbb8                	sd	a4,112(a5)
    50201802:	00007797          	auipc	a5,0x7
    50201806:	6be78793          	addi	a5,a5,1726 # 50208ec0 <syscall>
    5020180a:	00001717          	auipc	a4,0x1
    5020180e:	4a070713          	addi	a4,a4,1184 # 50202caa <get_time>
    50201812:	f7f8                	sd	a4,232(a5)
    50201814:	00007797          	auipc	a5,0x7
    50201818:	6ac78793          	addi	a5,a5,1708 # 50208ec0 <syscall>
    5020181c:	00001717          	auipc	a4,0x1
    50201820:	44070713          	addi	a4,a4,1088 # 50202c5c <get_time_base>
    50201824:	fbf8                	sd	a4,240(a5)
    50201826:	00007797          	auipc	a5,0x7
    5020182a:	69a78793          	addi	a5,a5,1690 # 50208ec0 <syscall>
    5020182e:	00001717          	auipc	a4,0x1
    50201832:	3ea70713          	addi	a4,a4,1002 # 50202c18 <get_ticks>
    50201836:	fff8                	sd	a4,248(a5)
    50201838:	00007797          	auipc	a5,0x7
    5020183c:	68878793          	addi	a5,a5,1672 # 50208ec0 <syscall>
    50201840:	00000717          	auipc	a4,0x0
    50201844:	d9670713          	addi	a4,a4,-618 # 502015d6 <init_pcb>
    50201848:	ffb8                	sd	a4,120(a5)
    5020184a:	00007797          	auipc	a5,0x7
    5020184e:	67678793          	addi	a5,a5,1654 # 50208ec0 <syscall>
    50201852:	00001717          	auipc	a4,0x1
    50201856:	23c70713          	addi	a4,a4,572 # 50202a8e <exit>
    5020185a:	e7d8                	sd	a4,136(a5)
    5020185c:	00007797          	auipc	a5,0x7
    50201860:	66478793          	addi	a5,a5,1636 # 50208ec0 <syscall>
    50201864:	00001717          	auipc	a4,0x1
    50201868:	25e70713          	addi	a4,a4,606 # 50202ac2 <waitpid>
    5020186c:	ebd8                	sd	a4,144(a5)
    5020186e:	00007797          	auipc	a5,0x7
    50201872:	65278793          	addi	a5,a5,1618 # 50208ec0 <syscall>
    50201876:	00001717          	auipc	a4,0x1
    5020187a:	2e670713          	addi	a4,a4,742 # 50202b5c <kill>
    5020187e:	e3d8                	sd	a4,128(a5)
    50201880:	00007797          	auipc	a5,0x7
    50201884:	64078793          	addi	a5,a5,1600 # 50208ec0 <syscall>
    50201888:	00001717          	auipc	a4,0x1
    5020188c:	37670713          	addi	a4,a4,886 # 50202bfe <getpid>
    50201890:	efd8                	sd	a4,152(a5)
    50201892:	0001                	nop
    50201894:	6422                	ld	s0,8(sp)
    50201896:	0141                	addi	sp,sp,16
    50201898:	8082                	ret

000000005020189a <main>:
    5020189a:	1141                	addi	sp,sp,-16
    5020189c:	e406                	sd	ra,8(sp)
    5020189e:	e022                	sd	s0,0(sp)
    502018a0:	0800                	addi	s0,sp,16
    502018a2:	00007797          	auipc	a5,0x7
    502018a6:	01678793          	addi	a5,a5,22 # 502088b8 <current_running>
    502018aa:	00005717          	auipc	a4,0x5
    502018ae:	b4e70713          	addi	a4,a4,-1202 # 502063f8 <pid0_pcb>
    502018b2:	e398                	sd	a4,0(a5)
    502018b4:	aa7ff0ef          	jal	ra,5020135a <init_allocated>
    502018b8:	b2fff0ef          	jal	ra,502013e6 <init_all_stacks>
    502018bc:	e1dff0ef          	jal	ra,502016d8 <init_shell>
    502018c0:	00004517          	auipc	a0,0x4
    502018c4:	0b850513          	addi	a0,a0,184 # 50205978 <waited_task+0x3e>
    502018c8:	6b5010ef          	jal	ra,5020377c <printk>
    502018cc:	4501                	li	a0,0
    502018ce:	a65ff0ef          	jal	ra,50201332 <sbi_read_fdt>
    502018d2:	87aa                	mv	a5,a0
    502018d4:	0007871b          	sext.w	a4,a5
    502018d8:	83818793          	addi	a5,gp,-1992 # 502065b0 <time_base>
    502018dc:	c398                	sw	a4,0(a5)
    502018de:	1ee000ef          	jal	ra,50201acc <init_exception>
    502018e2:	00004517          	auipc	a0,0x4
    502018e6:	0c650513          	addi	a0,a0,198 # 502059a8 <waited_task+0x6e>
    502018ea:	693010ef          	jal	ra,5020377c <printk>
    502018ee:	e25ff0ef          	jal	ra,50201712 <init_syscall>
    502018f2:	00004517          	auipc	a0,0x4
    502018f6:	0f650513          	addi	a0,a0,246 # 502059e8 <waited_task+0xae>
    502018fa:	683010ef          	jal	ra,5020377c <printk>
    502018fe:	506000ef          	jal	ra,50201e04 <init_screen>
    50201902:	00004517          	auipc	a0,0x4
    50201906:	11e50513          	addi	a0,a0,286 # 50205a20 <waited_task+0xe6>
    5020190a:	673010ef          	jal	ra,5020377c <printk>
    5020190e:	0ec000ef          	jal	ra,502019fa <reset_irq_timer>
    50201912:	4d9000ef          	jal	ra,502025ea <do_scheduler>
    50201916:	bff5                	j	50201912 <main+0x78>

0000000050201918 <_panic>:
    50201918:	7179                	addi	sp,sp,-48
    5020191a:	f406                	sd	ra,40(sp)
    5020191c:	f022                	sd	s0,32(sp)
    5020191e:	1800                	addi	s0,sp,48
    50201920:	fea43423          	sd	a0,-24(s0)
    50201924:	87ae                	mv	a5,a1
    50201926:	fcc43c23          	sd	a2,-40(s0)
    5020192a:	fef42223          	sw	a5,-28(s0)
    5020192e:	fe442783          	lw	a5,-28(s0)
    50201932:	86be                	mv	a3,a5
    50201934:	fe843603          	ld	a2,-24(s0)
    50201938:	fd843583          	ld	a1,-40(s0)
    5020193c:	00004517          	auipc	a0,0x4
    50201940:	21450513          	addi	a0,a0,532 # 50205b50 <waited_task+0x216>
    50201944:	639010ef          	jal	ra,5020377c <printk>
    50201948:	a001                	j	50201948 <_panic+0x30>

000000005020194a <sbi_set_timer>:
    5020194a:	1101                	addi	sp,sp,-32
    5020194c:	ec22                	sd	s0,24(sp)
    5020194e:	1000                	addi	s0,sp,32
    50201950:	fea43423          	sd	a0,-24(s0)
    50201954:	fe843503          	ld	a0,-24(s0)
    50201958:	4581                	li	a1,0
    5020195a:	4601                	li	a2,0
    5020195c:	4881                	li	a7,0
    5020195e:	00000073          	ecall
    50201962:	0001                	nop
    50201964:	6462                	ld	s0,24(sp)
    50201966:	6105                	addi	sp,sp,32
    50201968:	8082                	ret

000000005020196a <timer_check>:
    5020196a:	7179                	addi	sp,sp,-48
    5020196c:	f406                	sd	ra,40(sp)
    5020196e:	f022                	sd	s0,32(sp)
    50201970:	1800                	addi	s0,sp,48
    50201972:	00005797          	auipc	a5,0x5
    50201976:	b0678793          	addi	a5,a5,-1274 # 50206478 <timers>
    5020197a:	6398                	ld	a4,0(a5)
    5020197c:	00005797          	auipc	a5,0x5
    50201980:	afc78793          	addi	a5,a5,-1284 # 50206478 <timers>
    50201984:	06f70463          	beq	a4,a5,502019ec <timer_check+0x82>
    50201988:	00005517          	auipc	a0,0x5
    5020198c:	af050513          	addi	a0,a0,-1296 # 50206478 <timers>
    50201990:	5df000ef          	jal	ra,5020276e <check_sleep>
    50201994:	fea43423          	sd	a0,-24(s0)
    50201998:	29e010ef          	jal	ra,50202c36 <get_timer>
    5020199c:	fea43023          	sd	a0,-32(s0)
    502019a0:	a83d                	j	502019de <timer_check+0x74>
    502019a2:	00005797          	auipc	a5,0x5
    502019a6:	ad678793          	addi	a5,a5,-1322 # 50206478 <timers>
    502019aa:	639c                	ld	a5,0(a5)
    502019ac:	fcf43c23          	sd	a5,-40(s0)
    502019b0:	fd843503          	ld	a0,-40(s0)
    502019b4:	69d000ef          	jal	ra,50202850 <do_unblock>
    502019b8:	00005797          	auipc	a5,0x5
    502019bc:	ac078793          	addi	a5,a5,-1344 # 50206478 <timers>
    502019c0:	6398                	ld	a4,0(a5)
    502019c2:	00005797          	auipc	a5,0x5
    502019c6:	ab678793          	addi	a5,a5,-1354 # 50206478 <timers>
    502019ca:	02f70363          	beq	a4,a5,502019f0 <timer_check+0x86>
    502019ce:	00005517          	auipc	a0,0x5
    502019d2:	aaa50513          	addi	a0,a0,-1366 # 50206478 <timers>
    502019d6:	599000ef          	jal	ra,5020276e <check_sleep>
    502019da:	fea43423          	sd	a0,-24(s0)
    502019de:	fe843703          	ld	a4,-24(s0)
    502019e2:	fe043783          	ld	a5,-32(s0)
    502019e6:	faf76ee3          	bltu	a4,a5,502019a2 <timer_check+0x38>
    502019ea:	a021                	j	502019f2 <timer_check+0x88>
    502019ec:	0001                	nop
    502019ee:	a011                	j	502019f2 <timer_check+0x88>
    502019f0:	0001                	nop
    502019f2:	70a2                	ld	ra,40(sp)
    502019f4:	7402                	ld	s0,32(sp)
    502019f6:	6145                	addi	sp,sp,48
    502019f8:	8082                	ret

00000000502019fa <reset_irq_timer>:
    502019fa:	1141                	addi	sp,sp,-16
    502019fc:	e406                	sd	ra,8(sp)
    502019fe:	e022                	sd	s0,0(sp)
    50201a00:	0800                	addi	s0,sp,16
    50201a02:	57a000ef          	jal	ra,50201f7c <screen_reflush>
    50201a06:	f65ff0ef          	jal	ra,5020196a <timer_check>
    50201a0a:	20e010ef          	jal	ra,50202c18 <get_ticks>
    50201a0e:	872a                	mv	a4,a0
    50201a10:	83818793          	addi	a5,gp,-1992 # 502065b0 <time_base>
    50201a14:	439c                	lw	a5,0(a5)
    50201a16:	86be                	mv	a3,a5
    50201a18:	3e800793          	li	a5,1000
    50201a1c:	02f6d7bb          	divuw	a5,a3,a5
    50201a20:	2781                	sext.w	a5,a5
    50201a22:	1782                	slli	a5,a5,0x20
    50201a24:	9381                	srli	a5,a5,0x20
    50201a26:	97ba                	add	a5,a5,a4
    50201a28:	853e                	mv	a0,a5
    50201a2a:	f21ff0ef          	jal	ra,5020194a <sbi_set_timer>
    50201a2e:	3bd000ef          	jal	ra,502025ea <do_scheduler>
    50201a32:	0001                	nop
    50201a34:	60a2                	ld	ra,8(sp)
    50201a36:	6402                	ld	s0,0(sp)
    50201a38:	0141                	addi	sp,sp,16
    50201a3a:	8082                	ret

0000000050201a3c <interrupt_helper>:
    50201a3c:	7179                	addi	sp,sp,-48
    50201a3e:	f406                	sd	ra,40(sp)
    50201a40:	f022                	sd	s0,32(sp)
    50201a42:	1800                	addi	s0,sp,48
    50201a44:	fea43423          	sd	a0,-24(s0)
    50201a48:	feb43023          	sd	a1,-32(s0)
    50201a4c:	fcc43c23          	sd	a2,-40(s0)
    50201a50:	fd843783          	ld	a5,-40(s0)
    50201a54:	0207d663          	bgez	a5,50201a80 <interrupt_helper+0x44>
    50201a58:	fd843703          	ld	a4,-40(s0)
    50201a5c:	57fd                	li	a5,-1
    50201a5e:	8385                	srli	a5,a5,0x1
    50201a60:	8ff9                	and	a5,a5,a4
    50201a62:	00007717          	auipc	a4,0x7
    50201a66:	c6e70713          	addi	a4,a4,-914 # 502086d0 <irq_table>
    50201a6a:	078e                	slli	a5,a5,0x3
    50201a6c:	97ba                	add	a5,a5,a4
    50201a6e:	639c                	ld	a5,0(a5)
    50201a70:	fd843603          	ld	a2,-40(s0)
    50201a74:	fe043583          	ld	a1,-32(s0)
    50201a78:	fe843503          	ld	a0,-24(s0)
    50201a7c:	9782                	jalr	a5
    50201a7e:	a00d                	j	50201aa0 <interrupt_helper+0x64>
    50201a80:	00007717          	auipc	a4,0x7
    50201a84:	bc870713          	addi	a4,a4,-1080 # 50208648 <exc_table>
    50201a88:	fd843783          	ld	a5,-40(s0)
    50201a8c:	078e                	slli	a5,a5,0x3
    50201a8e:	97ba                	add	a5,a5,a4
    50201a90:	639c                	ld	a5,0(a5)
    50201a92:	fd843603          	ld	a2,-40(s0)
    50201a96:	fe043583          	ld	a1,-32(s0)
    50201a9a:	fe843503          	ld	a0,-24(s0)
    50201a9e:	9782                	jalr	a5
    50201aa0:	0001                	nop
    50201aa2:	70a2                	ld	ra,40(sp)
    50201aa4:	7402                	ld	s0,32(sp)
    50201aa6:	6145                	addi	sp,sp,48
    50201aa8:	8082                	ret

0000000050201aaa <handle_int>:
    50201aaa:	7179                	addi	sp,sp,-48
    50201aac:	f406                	sd	ra,40(sp)
    50201aae:	f022                	sd	s0,32(sp)
    50201ab0:	1800                	addi	s0,sp,48
    50201ab2:	fea43423          	sd	a0,-24(s0)
    50201ab6:	feb43023          	sd	a1,-32(s0)
    50201aba:	fcc43c23          	sd	a2,-40(s0)
    50201abe:	f3dff0ef          	jal	ra,502019fa <reset_irq_timer>
    50201ac2:	0001                	nop
    50201ac4:	70a2                	ld	ra,40(sp)
    50201ac6:	7402                	ld	s0,32(sp)
    50201ac8:	6145                	addi	sp,sp,48
    50201aca:	8082                	ret

0000000050201acc <init_exception>:
    50201acc:	1101                	addi	sp,sp,-32
    50201ace:	ec06                	sd	ra,24(sp)
    50201ad0:	e822                	sd	s0,16(sp)
    50201ad2:	1000                	addi	s0,sp,32
    50201ad4:	fe042623          	sw	zero,-20(s0)
    50201ad8:	a01d                	j	50201afe <init_exception+0x32>
    50201ada:	00007717          	auipc	a4,0x7
    50201ade:	bf670713          	addi	a4,a4,-1034 # 502086d0 <irq_table>
    50201ae2:	fec42783          	lw	a5,-20(s0)
    50201ae6:	078e                	slli	a5,a5,0x3
    50201ae8:	97ba                	add	a5,a5,a4
    50201aea:	00000717          	auipc	a4,0x0
    50201aee:	fc070713          	addi	a4,a4,-64 # 50201aaa <handle_int>
    50201af2:	e398                	sd	a4,0(a5)
    50201af4:	fec42783          	lw	a5,-20(s0)
    50201af8:	2785                	addiw	a5,a5,1
    50201afa:	fef42623          	sw	a5,-20(s0)
    50201afe:	fec42783          	lw	a5,-20(s0)
    50201b02:	0007871b          	sext.w	a4,a5
    50201b06:	47ad                	li	a5,11
    50201b08:	fce7d9e3          	bge	a5,a4,50201ada <init_exception+0xe>
    50201b0c:	fe042623          	sw	zero,-20(s0)
    50201b10:	a01d                	j	50201b36 <init_exception+0x6a>
    50201b12:	00007717          	auipc	a4,0x7
    50201b16:	b3670713          	addi	a4,a4,-1226 # 50208648 <exc_table>
    50201b1a:	fec42783          	lw	a5,-20(s0)
    50201b1e:	078e                	slli	a5,a5,0x3
    50201b20:	97ba                	add	a5,a5,a4
    50201b22:	00000717          	auipc	a4,0x0
    50201b26:	04270713          	addi	a4,a4,66 # 50201b64 <handle_other>
    50201b2a:	e398                	sd	a4,0(a5)
    50201b2c:	fec42783          	lw	a5,-20(s0)
    50201b30:	2785                	addiw	a5,a5,1
    50201b32:	fef42623          	sw	a5,-20(s0)
    50201b36:	fec42783          	lw	a5,-20(s0)
    50201b3a:	0007871b          	sext.w	a4,a5
    50201b3e:	47bd                	li	a5,15
    50201b40:	fce7d9e3          	bge	a5,a4,50201b12 <init_exception+0x46>
    50201b44:	00007797          	auipc	a5,0x7
    50201b48:	b0478793          	addi	a5,a5,-1276 # 50208648 <exc_table>
    50201b4c:	00001717          	auipc	a4,0x1
    50201b50:	20270713          	addi	a4,a4,514 # 50202d4e <handle_syscall>
    50201b54:	e3b8                	sd	a4,64(a5)
    50201b56:	d06ff0ef          	jal	ra,5020105c <setup_exception>
    50201b5a:	0001                	nop
    50201b5c:	60e2                	ld	ra,24(sp)
    50201b5e:	6442                	ld	s0,16(sp)
    50201b60:	6105                	addi	sp,sp,32
    50201b62:	8082                	ret

0000000050201b64 <handle_other>:
    50201b64:	7129                	addi	sp,sp,-320
    50201b66:	fe06                	sd	ra,312(sp)
    50201b68:	fa22                	sd	s0,304(sp)
    50201b6a:	0280                	addi	s0,sp,320
    50201b6c:	eca43c23          	sd	a0,-296(s0)
    50201b70:	ecb43823          	sd	a1,-304(s0)
    50201b74:	ecc43423          	sd	a2,-312(s0)
    50201b78:	00004717          	auipc	a4,0x4
    50201b7c:	07070713          	addi	a4,a4,112 # 50205be8 <waited_task+0x2ae>
    50201b80:	ee840793          	addi	a5,s0,-280
    50201b84:	86ba                	mv	a3,a4
    50201b86:	10000713          	li	a4,256
    50201b8a:	863a                	mv	a2,a4
    50201b8c:	85b6                	mv	a1,a3
    50201b8e:	853e                	mv	a0,a5
    50201b90:	37e020ef          	jal	ra,50203f0e <memcpy>
    50201b94:	fe042623          	sw	zero,-20(s0)
    50201b98:	a061                	j	50201c20 <handle_other+0xbc>
    50201b9a:	fe042423          	sw	zero,-24(s0)
    50201b9e:	a0a9                	j	50201be8 <handle_other+0x84>
    50201ba0:	fec42703          	lw	a4,-20(s0)
    50201ba4:	fe842783          	lw	a5,-24(s0)
    50201ba8:	9fb9                	addw	a5,a5,a4
    50201baa:	2781                	sext.w	a5,a5
    50201bac:	078e                	slli	a5,a5,0x3
    50201bae:	ff040713          	addi	a4,s0,-16
    50201bb2:	97ba                	add	a5,a5,a4
    50201bb4:	ef87b683          	ld	a3,-264(a5)
    50201bb8:	fec42703          	lw	a4,-20(s0)
    50201bbc:	fe842783          	lw	a5,-24(s0)
    50201bc0:	9fb9                	addw	a5,a5,a4
    50201bc2:	2781                	sext.w	a5,a5
    50201bc4:	ed843703          	ld	a4,-296(s0)
    50201bc8:	078e                	slli	a5,a5,0x3
    50201bca:	97ba                	add	a5,a5,a4
    50201bcc:	639c                	ld	a5,0(a5)
    50201bce:	863e                	mv	a2,a5
    50201bd0:	85b6                	mv	a1,a3
    50201bd2:	00004517          	auipc	a0,0x4
    50201bd6:	fa650513          	addi	a0,a0,-90 # 50205b78 <waited_task+0x23e>
    50201bda:	3a3010ef          	jal	ra,5020377c <printk>
    50201bde:	fe842783          	lw	a5,-24(s0)
    50201be2:	2785                	addiw	a5,a5,1
    50201be4:	fef42423          	sw	a5,-24(s0)
    50201be8:	fe842783          	lw	a5,-24(s0)
    50201bec:	0007871b          	sext.w	a4,a5
    50201bf0:	4789                	li	a5,2
    50201bf2:	00e7cc63          	blt	a5,a4,50201c0a <handle_other+0xa6>
    50201bf6:	fec42703          	lw	a4,-20(s0)
    50201bfa:	fe842783          	lw	a5,-24(s0)
    50201bfe:	9fb9                	addw	a5,a5,a4
    50201c00:	2781                	sext.w	a5,a5
    50201c02:	873e                	mv	a4,a5
    50201c04:	47fd                	li	a5,31
    50201c06:	f8e7dde3          	bge	a5,a4,50201ba0 <handle_other+0x3c>
    50201c0a:	00004517          	auipc	a0,0x4
    50201c0e:	f7e50513          	addi	a0,a0,-130 # 50205b88 <waited_task+0x24e>
    50201c12:	36b010ef          	jal	ra,5020377c <printk>
    50201c16:	fec42783          	lw	a5,-20(s0)
    50201c1a:	278d                	addiw	a5,a5,3
    50201c1c:	fef42623          	sw	a5,-20(s0)
    50201c20:	fec42783          	lw	a5,-20(s0)
    50201c24:	0007871b          	sext.w	a4,a5
    50201c28:	47fd                	li	a5,31
    50201c2a:	f6e7d8e3          	bge	a5,a4,50201b9a <handle_other+0x36>
    50201c2e:	ed843783          	ld	a5,-296(s0)
    50201c32:	1007b703          	ld	a4,256(a5)
    50201c36:	ed843783          	ld	a5,-296(s0)
    50201c3a:	1107b603          	ld	a2,272(a5)
    50201c3e:	ed843783          	ld	a5,-296(s0)
    50201c42:	1187b783          	ld	a5,280(a5)
    50201c46:	86be                	mv	a3,a5
    50201c48:	85ba                	mv	a1,a4
    50201c4a:	00004517          	auipc	a0,0x4
    50201c4e:	f4650513          	addi	a0,a0,-186 # 50205b90 <waited_task+0x256>
    50201c52:	32b010ef          	jal	ra,5020377c <printk>
    50201c56:	ed843783          	ld	a5,-296(s0)
    50201c5a:	1087b783          	ld	a5,264(a5)
    50201c5e:	85be                	mv	a1,a5
    50201c60:	00004517          	auipc	a0,0x4
    50201c64:	f6050513          	addi	a0,a0,-160 # 50205bc0 <waited_task+0x286>
    50201c68:	315010ef          	jal	ra,5020377c <printk>
    50201c6c:	00004617          	auipc	a2,0x4
    50201c70:	07c60613          	addi	a2,a2,124 # 50205ce8 <__FUNCTION__.1433>
    50201c74:	05e00593          	li	a1,94
    50201c78:	00004517          	auipc	a0,0x4
    50201c7c:	f5850513          	addi	a0,a0,-168 # 50205bd0 <waited_task+0x296>
    50201c80:	c99ff0ef          	jal	ra,50201918 <_panic>
    50201c84:	0001                	nop
    50201c86:	70f2                	ld	ra,312(sp)
    50201c88:	7452                	ld	s0,304(sp)
    50201c8a:	6131                	addi	sp,sp,320
    50201c8c:	8082                	ret

0000000050201c8e <vt100_move_cursor>:
    50201c8e:	1101                	addi	sp,sp,-32
    50201c90:	ec06                	sd	ra,24(sp)
    50201c92:	e822                	sd	s0,16(sp)
    50201c94:	1000                	addi	s0,sp,32
    50201c96:	87aa                	mv	a5,a0
    50201c98:	872e                	mv	a4,a1
    50201c9a:	fef42623          	sw	a5,-20(s0)
    50201c9e:	87ba                	mv	a5,a4
    50201ca0:	fef42423          	sw	a5,-24(s0)
    50201ca4:	bf8ff0ef          	jal	ra,5020109c <disable_preempt>
    50201ca8:	fec42703          	lw	a4,-20(s0)
    50201cac:	fe842783          	lw	a5,-24(s0)
    50201cb0:	86ba                	mv	a3,a4
    50201cb2:	863e                	mv	a2,a5
    50201cb4:	45ed                	li	a1,27
    50201cb6:	00004517          	auipc	a0,0x4
    50201cba:	04250513          	addi	a0,a0,66 # 50205cf8 <__FUNCTION__.1433+0x10>
    50201cbe:	2bf010ef          	jal	ra,5020377c <printk>
    50201cc2:	00007797          	auipc	a5,0x7
    50201cc6:	bf678793          	addi	a5,a5,-1034 # 502088b8 <current_running>
    50201cca:	639c                	ld	a5,0(a5)
    50201ccc:	fec42703          	lw	a4,-20(s0)
    50201cd0:	cfb8                	sw	a4,88(a5)
    50201cd2:	00007797          	auipc	a5,0x7
    50201cd6:	be678793          	addi	a5,a5,-1050 # 502088b8 <current_running>
    50201cda:	639c                	ld	a5,0(a5)
    50201cdc:	fe842703          	lw	a4,-24(s0)
    50201ce0:	cff8                	sw	a4,92(a5)
    50201ce2:	b92ff0ef          	jal	ra,50201074 <enable_preempt>
    50201ce6:	0001                	nop
    50201ce8:	60e2                	ld	ra,24(sp)
    50201cea:	6442                	ld	s0,16(sp)
    50201cec:	6105                	addi	sp,sp,32
    50201cee:	8082                	ret

0000000050201cf0 <vt100_clear>:
    50201cf0:	1141                	addi	sp,sp,-16
    50201cf2:	e406                	sd	ra,8(sp)
    50201cf4:	e022                	sd	s0,0(sp)
    50201cf6:	0800                	addi	s0,sp,16
    50201cf8:	45ed                	li	a1,27
    50201cfa:	00004517          	auipc	a0,0x4
    50201cfe:	00e50513          	addi	a0,a0,14 # 50205d08 <__FUNCTION__.1433+0x20>
    50201d02:	27b010ef          	jal	ra,5020377c <printk>
    50201d06:	0001                	nop
    50201d08:	60a2                	ld	ra,8(sp)
    50201d0a:	6402                	ld	s0,0(sp)
    50201d0c:	0141                	addi	sp,sp,16
    50201d0e:	8082                	ret

0000000050201d10 <vt100_hidden_cursor>:
    50201d10:	1141                	addi	sp,sp,-16
    50201d12:	e406                	sd	ra,8(sp)
    50201d14:	e022                	sd	s0,0(sp)
    50201d16:	0800                	addi	s0,sp,16
    50201d18:	45ed                	li	a1,27
    50201d1a:	00004517          	auipc	a0,0x4
    50201d1e:	ff650513          	addi	a0,a0,-10 # 50205d10 <__FUNCTION__.1433+0x28>
    50201d22:	25b010ef          	jal	ra,5020377c <printk>
    50201d26:	0001                	nop
    50201d28:	60a2                	ld	ra,8(sp)
    50201d2a:	6402                	ld	s0,0(sp)
    50201d2c:	0141                	addi	sp,sp,16
    50201d2e:	8082                	ret

0000000050201d30 <screen_write_ch>:
    50201d30:	1101                	addi	sp,sp,-32
    50201d32:	ec22                	sd	s0,24(sp)
    50201d34:	1000                	addi	s0,sp,32
    50201d36:	87aa                	mv	a5,a0
    50201d38:	fef407a3          	sb	a5,-17(s0)
    50201d3c:	fef44783          	lbu	a5,-17(s0)
    50201d40:	0ff7f713          	andi	a4,a5,255
    50201d44:	47a9                	li	a5,10
    50201d46:	02f71663          	bne	a4,a5,50201d72 <screen_write_ch+0x42>
    50201d4a:	00007797          	auipc	a5,0x7
    50201d4e:	9e678793          	addi	a5,a5,-1562 # 50208730 <screen_cursor_x>
    50201d52:	4705                	li	a4,1
    50201d54:	c398                	sw	a4,0(a5)
    50201d56:	00007797          	auipc	a5,0x7
    50201d5a:	9de78793          	addi	a5,a5,-1570 # 50208734 <screen_cursor_y>
    50201d5e:	439c                	lw	a5,0(a5)
    50201d60:	2785                	addiw	a5,a5,1
    50201d62:	0007871b          	sext.w	a4,a5
    50201d66:	00007797          	auipc	a5,0x7
    50201d6a:	9ce78793          	addi	a5,a5,-1586 # 50208734 <screen_cursor_y>
    50201d6e:	c398                	sw	a4,0(a5)
    50201d70:	a085                	j	50201dd0 <screen_write_ch+0xa0>
    50201d72:	00007797          	auipc	a5,0x7
    50201d76:	9c278793          	addi	a5,a5,-1598 # 50208734 <screen_cursor_y>
    50201d7a:	439c                	lw	a5,0(a5)
    50201d7c:	37fd                	addiw	a5,a5,-1
    50201d7e:	2781                	sext.w	a5,a5
    50201d80:	873e                	mv	a4,a5
    50201d82:	87ba                	mv	a5,a4
    50201d84:	0027979b          	slliw	a5,a5,0x2
    50201d88:	9fb9                	addw	a5,a5,a4
    50201d8a:	0047979b          	slliw	a5,a5,0x4
    50201d8e:	0007871b          	sext.w	a4,a5
    50201d92:	00007797          	auipc	a5,0x7
    50201d96:	99e78793          	addi	a5,a5,-1634 # 50208730 <screen_cursor_x>
    50201d9a:	439c                	lw	a5,0(a5)
    50201d9c:	37fd                	addiw	a5,a5,-1
    50201d9e:	2781                	sext.w	a5,a5
    50201da0:	9fb9                	addw	a5,a5,a4
    50201da2:	2781                	sext.w	a5,a5
    50201da4:	00005717          	auipc	a4,0x5
    50201da8:	81470713          	addi	a4,a4,-2028 # 502065b8 <new_screen>
    50201dac:	97ba                	add	a5,a5,a4
    50201dae:	fef44703          	lbu	a4,-17(s0)
    50201db2:	00e78023          	sb	a4,0(a5)
    50201db6:	00007797          	auipc	a5,0x7
    50201dba:	97a78793          	addi	a5,a5,-1670 # 50208730 <screen_cursor_x>
    50201dbe:	439c                	lw	a5,0(a5)
    50201dc0:	2785                	addiw	a5,a5,1
    50201dc2:	0007871b          	sext.w	a4,a5
    50201dc6:	00007797          	auipc	a5,0x7
    50201dca:	96a78793          	addi	a5,a5,-1686 # 50208730 <screen_cursor_x>
    50201dce:	c398                	sw	a4,0(a5)
    50201dd0:	00007797          	auipc	a5,0x7
    50201dd4:	ae878793          	addi	a5,a5,-1304 # 502088b8 <current_running>
    50201dd8:	639c                	ld	a5,0(a5)
    50201dda:	00007717          	auipc	a4,0x7
    50201dde:	95670713          	addi	a4,a4,-1706 # 50208730 <screen_cursor_x>
    50201de2:	4318                	lw	a4,0(a4)
    50201de4:	cfb8                	sw	a4,88(a5)
    50201de6:	00007797          	auipc	a5,0x7
    50201dea:	ad278793          	addi	a5,a5,-1326 # 502088b8 <current_running>
    50201dee:	639c                	ld	a5,0(a5)
    50201df0:	00007717          	auipc	a4,0x7
    50201df4:	94470713          	addi	a4,a4,-1724 # 50208734 <screen_cursor_y>
    50201df8:	4318                	lw	a4,0(a4)
    50201dfa:	cff8                	sw	a4,92(a5)
    50201dfc:	0001                	nop
    50201dfe:	6462                	ld	s0,24(sp)
    50201e00:	6105                	addi	sp,sp,32
    50201e02:	8082                	ret

0000000050201e04 <init_screen>:
    50201e04:	1141                	addi	sp,sp,-16
    50201e06:	e406                	sd	ra,8(sp)
    50201e08:	e022                	sd	s0,0(sp)
    50201e0a:	0800                	addi	s0,sp,16
    50201e0c:	f05ff0ef          	jal	ra,50201d10 <vt100_hidden_cursor>
    50201e10:	ee1ff0ef          	jal	ra,50201cf0 <vt100_clear>
    50201e14:	0001                	nop
    50201e16:	60a2                	ld	ra,8(sp)
    50201e18:	6402                	ld	s0,0(sp)
    50201e1a:	0141                	addi	sp,sp,16
    50201e1c:	8082                	ret

0000000050201e1e <screen_clear>:
    50201e1e:	1101                	addi	sp,sp,-32
    50201e20:	ec06                	sd	ra,24(sp)
    50201e22:	e822                	sd	s0,16(sp)
    50201e24:	1000                	addi	s0,sp,32
    50201e26:	fe042623          	sw	zero,-20(s0)
    50201e2a:	a8a1                	j	50201e82 <screen_clear+0x64>
    50201e2c:	fe042423          	sw	zero,-24(s0)
    50201e30:	a825                	j	50201e68 <screen_clear+0x4a>
    50201e32:	fec42703          	lw	a4,-20(s0)
    50201e36:	87ba                	mv	a5,a4
    50201e38:	0027979b          	slliw	a5,a5,0x2
    50201e3c:	9fb9                	addw	a5,a5,a4
    50201e3e:	0047979b          	slliw	a5,a5,0x4
    50201e42:	2781                	sext.w	a5,a5
    50201e44:	fe842703          	lw	a4,-24(s0)
    50201e48:	9fb9                	addw	a5,a5,a4
    50201e4a:	2781                	sext.w	a5,a5
    50201e4c:	00004717          	auipc	a4,0x4
    50201e50:	76c70713          	addi	a4,a4,1900 # 502065b8 <new_screen>
    50201e54:	97ba                	add	a5,a5,a4
    50201e56:	02000713          	li	a4,32
    50201e5a:	00e78023          	sb	a4,0(a5)
    50201e5e:	fe842783          	lw	a5,-24(s0)
    50201e62:	2785                	addiw	a5,a5,1
    50201e64:	fef42423          	sw	a5,-24(s0)
    50201e68:	fe842783          	lw	a5,-24(s0)
    50201e6c:	0007871b          	sext.w	a4,a5
    50201e70:	04f00793          	li	a5,79
    50201e74:	fae7dfe3          	bge	a5,a4,50201e32 <screen_clear+0x14>
    50201e78:	fec42783          	lw	a5,-20(s0)
    50201e7c:	2785                	addiw	a5,a5,1
    50201e7e:	fef42623          	sw	a5,-20(s0)
    50201e82:	fec42783          	lw	a5,-20(s0)
    50201e86:	0007871b          	sext.w	a4,a5
    50201e8a:	03100793          	li	a5,49
    50201e8e:	f8e7dfe3          	bge	a5,a4,50201e2c <screen_clear+0xe>
    50201e92:	00007797          	auipc	a5,0x7
    50201e96:	89e78793          	addi	a5,a5,-1890 # 50208730 <screen_cursor_x>
    50201e9a:	4705                	li	a4,1
    50201e9c:	c398                	sw	a4,0(a5)
    50201e9e:	00007797          	auipc	a5,0x7
    50201ea2:	89678793          	addi	a5,a5,-1898 # 50208734 <screen_cursor_y>
    50201ea6:	4705                	li	a4,1
    50201ea8:	c398                	sw	a4,0(a5)
    50201eaa:	0d2000ef          	jal	ra,50201f7c <screen_reflush>
    50201eae:	0001                	nop
    50201eb0:	60e2                	ld	ra,24(sp)
    50201eb2:	6442                	ld	s0,16(sp)
    50201eb4:	6105                	addi	sp,sp,32
    50201eb6:	8082                	ret

0000000050201eb8 <screen_move_cursor>:
    50201eb8:	1101                	addi	sp,sp,-32
    50201eba:	ec22                	sd	s0,24(sp)
    50201ebc:	1000                	addi	s0,sp,32
    50201ebe:	87aa                	mv	a5,a0
    50201ec0:	872e                	mv	a4,a1
    50201ec2:	fef42623          	sw	a5,-20(s0)
    50201ec6:	87ba                	mv	a5,a4
    50201ec8:	fef42423          	sw	a5,-24(s0)
    50201ecc:	00007797          	auipc	a5,0x7
    50201ed0:	86478793          	addi	a5,a5,-1948 # 50208730 <screen_cursor_x>
    50201ed4:	fec42703          	lw	a4,-20(s0)
    50201ed8:	c398                	sw	a4,0(a5)
    50201eda:	00007797          	auipc	a5,0x7
    50201ede:	85a78793          	addi	a5,a5,-1958 # 50208734 <screen_cursor_y>
    50201ee2:	fe842703          	lw	a4,-24(s0)
    50201ee6:	c398                	sw	a4,0(a5)
    50201ee8:	00007797          	auipc	a5,0x7
    50201eec:	9d078793          	addi	a5,a5,-1584 # 502088b8 <current_running>
    50201ef0:	639c                	ld	a5,0(a5)
    50201ef2:	00007717          	auipc	a4,0x7
    50201ef6:	83e70713          	addi	a4,a4,-1986 # 50208730 <screen_cursor_x>
    50201efa:	4318                	lw	a4,0(a4)
    50201efc:	cfb8                	sw	a4,88(a5)
    50201efe:	00007797          	auipc	a5,0x7
    50201f02:	9ba78793          	addi	a5,a5,-1606 # 502088b8 <current_running>
    50201f06:	639c                	ld	a5,0(a5)
    50201f08:	00007717          	auipc	a4,0x7
    50201f0c:	82c70713          	addi	a4,a4,-2004 # 50208734 <screen_cursor_y>
    50201f10:	4318                	lw	a4,0(a4)
    50201f12:	cff8                	sw	a4,92(a5)
    50201f14:	0001                	nop
    50201f16:	6462                	ld	s0,24(sp)
    50201f18:	6105                	addi	sp,sp,32
    50201f1a:	8082                	ret

0000000050201f1c <screen_write>:
    50201f1c:	7179                	addi	sp,sp,-48
    50201f1e:	f406                	sd	ra,40(sp)
    50201f20:	f022                	sd	s0,32(sp)
    50201f22:	1800                	addi	s0,sp,48
    50201f24:	fca43c23          	sd	a0,-40(s0)
    50201f28:	fe042623          	sw	zero,-20(s0)
    50201f2c:	fd843503          	ld	a0,-40(s0)
    50201f30:	68b000ef          	jal	ra,50202dba <kstrlen>
    50201f34:	87aa                	mv	a5,a0
    50201f36:	fef42423          	sw	a5,-24(s0)
    50201f3a:	fe042623          	sw	zero,-20(s0)
    50201f3e:	a005                	j	50201f5e <screen_write+0x42>
    50201f40:	fec42783          	lw	a5,-20(s0)
    50201f44:	fd843703          	ld	a4,-40(s0)
    50201f48:	97ba                	add	a5,a5,a4
    50201f4a:	0007c783          	lbu	a5,0(a5)
    50201f4e:	853e                	mv	a0,a5
    50201f50:	de1ff0ef          	jal	ra,50201d30 <screen_write_ch>
    50201f54:	fec42783          	lw	a5,-20(s0)
    50201f58:	2785                	addiw	a5,a5,1
    50201f5a:	fef42623          	sw	a5,-20(s0)
    50201f5e:	fec42703          	lw	a4,-20(s0)
    50201f62:	fe842783          	lw	a5,-24(s0)
    50201f66:	2701                	sext.w	a4,a4
    50201f68:	2781                	sext.w	a5,a5
    50201f6a:	fcf74be3          	blt	a4,a5,50201f40 <screen_write+0x24>
    50201f6e:	00e000ef          	jal	ra,50201f7c <screen_reflush>
    50201f72:	0001                	nop
    50201f74:	70a2                	ld	ra,40(sp)
    50201f76:	7402                	ld	s0,32(sp)
    50201f78:	6145                	addi	sp,sp,48
    50201f7a:	8082                	ret

0000000050201f7c <screen_reflush>:
    50201f7c:	1101                	addi	sp,sp,-32
    50201f7e:	ec06                	sd	ra,24(sp)
    50201f80:	e822                	sd	s0,16(sp)
    50201f82:	1000                	addi	s0,sp,32
    50201f84:	fe042623          	sw	zero,-20(s0)
    50201f88:	aa31                	j	502020a4 <screen_reflush+0x128>
    50201f8a:	fe042423          	sw	zero,-24(s0)
    50201f8e:	a8f5                	j	5020208a <screen_reflush+0x10e>
    50201f90:	fec42703          	lw	a4,-20(s0)
    50201f94:	87ba                	mv	a5,a4
    50201f96:	0027979b          	slliw	a5,a5,0x2
    50201f9a:	9fb9                	addw	a5,a5,a4
    50201f9c:	0047979b          	slliw	a5,a5,0x4
    50201fa0:	2781                	sext.w	a5,a5
    50201fa2:	fe842703          	lw	a4,-24(s0)
    50201fa6:	9fb9                	addw	a5,a5,a4
    50201fa8:	2781                	sext.w	a5,a5
    50201faa:	00004717          	auipc	a4,0x4
    50201fae:	60e70713          	addi	a4,a4,1550 # 502065b8 <new_screen>
    50201fb2:	97ba                	add	a5,a5,a4
    50201fb4:	0007c683          	lbu	a3,0(a5)
    50201fb8:	fec42703          	lw	a4,-20(s0)
    50201fbc:	87ba                	mv	a5,a4
    50201fbe:	0027979b          	slliw	a5,a5,0x2
    50201fc2:	9fb9                	addw	a5,a5,a4
    50201fc4:	0047979b          	slliw	a5,a5,0x4
    50201fc8:	2781                	sext.w	a5,a5
    50201fca:	fe842703          	lw	a4,-24(s0)
    50201fce:	9fb9                	addw	a5,a5,a4
    50201fd0:	2781                	sext.w	a5,a5
    50201fd2:	00005717          	auipc	a4,0x5
    50201fd6:	58670713          	addi	a4,a4,1414 # 50207558 <old_screen>
    50201fda:	97ba                	add	a5,a5,a4
    50201fdc:	0007c783          	lbu	a5,0(a5)
    50201fe0:	8736                	mv	a4,a3
    50201fe2:	08f70f63          	beq	a4,a5,50202080 <screen_reflush+0x104>
    50201fe6:	fe842783          	lw	a5,-24(s0)
    50201fea:	2785                	addiw	a5,a5,1
    50201fec:	0007871b          	sext.w	a4,a5
    50201ff0:	fec42783          	lw	a5,-20(s0)
    50201ff4:	2785                	addiw	a5,a5,1
    50201ff6:	2781                	sext.w	a5,a5
    50201ff8:	85be                	mv	a1,a5
    50201ffa:	853a                	mv	a0,a4
    50201ffc:	c93ff0ef          	jal	ra,50201c8e <vt100_move_cursor>
    50202000:	fec42703          	lw	a4,-20(s0)
    50202004:	87ba                	mv	a5,a4
    50202006:	0027979b          	slliw	a5,a5,0x2
    5020200a:	9fb9                	addw	a5,a5,a4
    5020200c:	0047979b          	slliw	a5,a5,0x4
    50202010:	2781                	sext.w	a5,a5
    50202012:	fe842703          	lw	a4,-24(s0)
    50202016:	9fb9                	addw	a5,a5,a4
    50202018:	2781                	sext.w	a5,a5
    5020201a:	00004717          	auipc	a4,0x4
    5020201e:	59e70713          	addi	a4,a4,1438 # 502065b8 <new_screen>
    50202022:	97ba                	add	a5,a5,a4
    50202024:	0007c783          	lbu	a5,0(a5)
    50202028:	853e                	mv	a0,a5
    5020202a:	a38ff0ef          	jal	ra,50201262 <port_write_ch>
    5020202e:	fec42703          	lw	a4,-20(s0)
    50202032:	87ba                	mv	a5,a4
    50202034:	0027979b          	slliw	a5,a5,0x2
    50202038:	9fb9                	addw	a5,a5,a4
    5020203a:	0047979b          	slliw	a5,a5,0x4
    5020203e:	2781                	sext.w	a5,a5
    50202040:	fe842703          	lw	a4,-24(s0)
    50202044:	9fb9                	addw	a5,a5,a4
    50202046:	0007869b          	sext.w	a3,a5
    5020204a:	fec42703          	lw	a4,-20(s0)
    5020204e:	87ba                	mv	a5,a4
    50202050:	0027979b          	slliw	a5,a5,0x2
    50202054:	9fb9                	addw	a5,a5,a4
    50202056:	0047979b          	slliw	a5,a5,0x4
    5020205a:	2781                	sext.w	a5,a5
    5020205c:	fe842703          	lw	a4,-24(s0)
    50202060:	9fb9                	addw	a5,a5,a4
    50202062:	2781                	sext.w	a5,a5
    50202064:	00004717          	auipc	a4,0x4
    50202068:	55470713          	addi	a4,a4,1364 # 502065b8 <new_screen>
    5020206c:	9736                	add	a4,a4,a3
    5020206e:	00074703          	lbu	a4,0(a4)
    50202072:	00005697          	auipc	a3,0x5
    50202076:	4e668693          	addi	a3,a3,1254 # 50207558 <old_screen>
    5020207a:	97b6                	add	a5,a5,a3
    5020207c:	00e78023          	sb	a4,0(a5)
    50202080:	fe842783          	lw	a5,-24(s0)
    50202084:	2785                	addiw	a5,a5,1
    50202086:	fef42423          	sw	a5,-24(s0)
    5020208a:	fe842783          	lw	a5,-24(s0)
    5020208e:	0007871b          	sext.w	a4,a5
    50202092:	04f00793          	li	a5,79
    50202096:	eee7dde3          	bge	a5,a4,50201f90 <screen_reflush+0x14>
    5020209a:	fec42783          	lw	a5,-20(s0)
    5020209e:	2785                	addiw	a5,a5,1
    502020a0:	fef42623          	sw	a5,-20(s0)
    502020a4:	fec42783          	lw	a5,-20(s0)
    502020a8:	0007871b          	sext.w	a4,a5
    502020ac:	03100793          	li	a5,49
    502020b0:	ece7dde3          	bge	a5,a4,50201f8a <screen_reflush+0xe>
    502020b4:	00006797          	auipc	a5,0x6
    502020b8:	67c78793          	addi	a5,a5,1660 # 50208730 <screen_cursor_x>
    502020bc:	4398                	lw	a4,0(a5)
    502020be:	00006797          	auipc	a5,0x6
    502020c2:	67678793          	addi	a5,a5,1654 # 50208734 <screen_cursor_y>
    502020c6:	439c                	lw	a5,0(a5)
    502020c8:	85be                	mv	a1,a5
    502020ca:	853a                	mv	a0,a4
    502020cc:	bc3ff0ef          	jal	ra,50201c8e <vt100_move_cursor>
    502020d0:	0001                	nop
    502020d2:	60e2                	ld	ra,24(sp)
    502020d4:	6442                	ld	s0,16(sp)
    502020d6:	6105                	addi	sp,sp,32
    502020d8:	8082                	ret

00000000502020da <INIT_LIST_HEAD>:
    502020da:	1101                	addi	sp,sp,-32
    502020dc:	ec22                	sd	s0,24(sp)
    502020de:	1000                	addi	s0,sp,32
    502020e0:	fea43423          	sd	a0,-24(s0)
    502020e4:	fe843783          	ld	a5,-24(s0)
    502020e8:	fe843703          	ld	a4,-24(s0)
    502020ec:	e398                	sd	a4,0(a5)
    502020ee:	fe843783          	ld	a5,-24(s0)
    502020f2:	fe843703          	ld	a4,-24(s0)
    502020f6:	e798                	sd	a4,8(a5)
    502020f8:	0001                	nop
    502020fa:	6462                	ld	s0,24(sp)
    502020fc:	6105                	addi	sp,sp,32
    502020fe:	8082                	ret

0000000050202100 <list_empty>:
    50202100:	1101                	addi	sp,sp,-32
    50202102:	ec22                	sd	s0,24(sp)
    50202104:	1000                	addi	s0,sp,32
    50202106:	fea43423          	sd	a0,-24(s0)
    5020210a:	fe843783          	ld	a5,-24(s0)
    5020210e:	639c                	ld	a5,0(a5)
    50202110:	fe843703          	ld	a4,-24(s0)
    50202114:	40f707b3          	sub	a5,a4,a5
    50202118:	0017b793          	seqz	a5,a5
    5020211c:	0ff7f793          	andi	a5,a5,255
    50202120:	2781                	sext.w	a5,a5
    50202122:	853e                	mv	a0,a5
    50202124:	6462                	ld	s0,24(sp)
    50202126:	6105                	addi	sp,sp,32
    50202128:	8082                	ret

000000005020212a <assert_supervisor_mode>:
    5020212a:	1141                	addi	sp,sp,-16
    5020212c:	e422                	sd	s0,8(sp)
    5020212e:	0800                	addi	s0,sp,16
    50202130:	14002073          	csrr	zero,sscratch
    50202134:	0001                	nop
    50202136:	6422                	ld	s0,8(sp)
    50202138:	0141                	addi	sp,sp,16
    5020213a:	8082                	ret

000000005020213c <do_mutex_lock_init>:
    5020213c:	7179                	addi	sp,sp,-48
    5020213e:	f406                	sd	ra,40(sp)
    50202140:	f022                	sd	s0,32(sp)
    50202142:	1800                	addi	s0,sp,48
    50202144:	fca43c23          	sd	a0,-40(s0)
    50202148:	fe3ff0ef          	jal	ra,5020212a <assert_supervisor_mode>
    5020214c:	fd843783          	ld	a5,-40(s0)
    50202150:	439c                	lw	a5,0(a5)
    50202152:	c399                	beqz	a5,50202158 <do_mutex_lock_init+0x1c>
    50202154:	4781                	li	a5,0
    50202156:	a8ad                	j	502021d0 <do_mutex_lock_init+0x94>
    50202158:	81418793          	addi	a5,gp,-2028 # 5020658c <lock_id>
    5020215c:	439c                	lw	a5,0(a5)
    5020215e:	0017871b          	addiw	a4,a5,1
    50202162:	0007069b          	sext.w	a3,a4
    50202166:	81418713          	addi	a4,gp,-2028 # 5020658c <lock_id>
    5020216a:	c314                	sw	a3,0(a4)
    5020216c:	fef42623          	sw	a5,-20(s0)
    50202170:	00006697          	auipc	a3,0x6
    50202174:	5c868693          	addi	a3,a3,1480 # 50208738 <lock>
    50202178:	fec42703          	lw	a4,-20(s0)
    5020217c:	87ba                	mv	a5,a4
    5020217e:	0786                	slli	a5,a5,0x1
    50202180:	97ba                	add	a5,a5,a4
    50202182:	078e                	slli	a5,a5,0x3
    50202184:	97b6                	add	a5,a5,a3
    50202186:	0007a023          	sw	zero,0(a5)
    5020218a:	00006697          	auipc	a3,0x6
    5020218e:	5ae68693          	addi	a3,a3,1454 # 50208738 <lock>
    50202192:	fec42703          	lw	a4,-20(s0)
    50202196:	87ba                	mv	a5,a4
    50202198:	0786                	slli	a5,a5,0x1
    5020219a:	97ba                	add	a5,a5,a4
    5020219c:	078e                	slli	a5,a5,0x3
    5020219e:	97b6                	add	a5,a5,a3
    502021a0:	0007a223          	sw	zero,4(a5)
    502021a4:	fec42703          	lw	a4,-20(s0)
    502021a8:	87ba                	mv	a5,a4
    502021aa:	0786                	slli	a5,a5,0x1
    502021ac:	97ba                	add	a5,a5,a4
    502021ae:	078e                	slli	a5,a5,0x3
    502021b0:	00006717          	auipc	a4,0x6
    502021b4:	58870713          	addi	a4,a4,1416 # 50208738 <lock>
    502021b8:	97ba                	add	a5,a5,a4
    502021ba:	07a1                	addi	a5,a5,8
    502021bc:	853e                	mv	a0,a5
    502021be:	f1dff0ef          	jal	ra,502020da <INIT_LIST_HEAD>
    502021c2:	fd843783          	ld	a5,-40(s0)
    502021c6:	fec42703          	lw	a4,-20(s0)
    502021ca:	c398                	sw	a4,0(a5)
    502021cc:	fec42783          	lw	a5,-20(s0)
    502021d0:	853e                	mv	a0,a5
    502021d2:	70a2                	ld	ra,40(sp)
    502021d4:	7402                	ld	s0,32(sp)
    502021d6:	6145                	addi	sp,sp,48
    502021d8:	8082                	ret

00000000502021da <do_mutex_lock_acquire>:
    502021da:	1101                	addi	sp,sp,-32
    502021dc:	ec06                	sd	ra,24(sp)
    502021de:	e822                	sd	s0,16(sp)
    502021e0:	1000                	addi	s0,sp,32
    502021e2:	87aa                	mv	a5,a0
    502021e4:	fef42623          	sw	a5,-20(s0)
    502021e8:	00006697          	auipc	a3,0x6
    502021ec:	55068693          	addi	a3,a3,1360 # 50208738 <lock>
    502021f0:	fec42703          	lw	a4,-20(s0)
    502021f4:	87ba                	mv	a5,a4
    502021f6:	0786                	slli	a5,a5,0x1
    502021f8:	97ba                	add	a5,a5,a4
    502021fa:	078e                	slli	a5,a5,0x3
    502021fc:	97b6                	add	a5,a5,a3
    502021fe:	439c                	lw	a5,0(a5)
    50202200:	2781                	sext.w	a5,a5
    50202202:	873e                	mv	a4,a5
    50202204:	4785                	li	a5,1
    50202206:	04f71f63          	bne	a4,a5,50202264 <do_mutex_lock_acquire+0x8a>
    5020220a:	00006797          	auipc	a5,0x6
    5020220e:	6ae78793          	addi	a5,a5,1710 # 502088b8 <current_running>
    50202212:	639c                	ld	a5,0(a5)
    50202214:	0207ac23          	sw	zero,56(a5)
    50202218:	00006797          	auipc	a5,0x6
    5020221c:	6a078793          	addi	a5,a5,1696 # 502088b8 <current_running>
    50202220:	639c                	ld	a5,0(a5)
    50202222:	01878693          	addi	a3,a5,24
    50202226:	fec42703          	lw	a4,-20(s0)
    5020222a:	87ba                	mv	a5,a4
    5020222c:	0786                	slli	a5,a5,0x1
    5020222e:	97ba                	add	a5,a5,a4
    50202230:	078e                	slli	a5,a5,0x3
    50202232:	00006717          	auipc	a4,0x6
    50202236:	50670713          	addi	a4,a4,1286 # 50208738 <lock>
    5020223a:	97ba                	add	a5,a5,a4
    5020223c:	07a1                	addi	a5,a5,8
    5020223e:	85be                	mv	a1,a5
    50202240:	8536                	mv	a0,a3
    50202242:	5e8000ef          	jal	ra,5020282a <do_block>
    50202246:	00006697          	auipc	a3,0x6
    5020224a:	4f268693          	addi	a3,a3,1266 # 50208738 <lock>
    5020224e:	fec42703          	lw	a4,-20(s0)
    50202252:	87ba                	mv	a5,a4
    50202254:	0786                	slli	a5,a5,0x1
    50202256:	97ba                	add	a5,a5,a4
    50202258:	078e                	slli	a5,a5,0x3
    5020225a:	97b6                	add	a5,a5,a3
    5020225c:	0007a223          	sw	zero,4(a5)
    50202260:	38a000ef          	jal	ra,502025ea <do_scheduler>
    50202264:	00006697          	auipc	a3,0x6
    50202268:	4d468693          	addi	a3,a3,1236 # 50208738 <lock>
    5020226c:	fec42703          	lw	a4,-20(s0)
    50202270:	87ba                	mv	a5,a4
    50202272:	0786                	slli	a5,a5,0x1
    50202274:	97ba                	add	a5,a5,a4
    50202276:	078e                	slli	a5,a5,0x3
    50202278:	97b6                	add	a5,a5,a3
    5020227a:	4705                	li	a4,1
    5020227c:	c398                	sw	a4,0(a5)
    5020227e:	00006697          	auipc	a3,0x6
    50202282:	4ba68693          	addi	a3,a3,1210 # 50208738 <lock>
    50202286:	fec42703          	lw	a4,-20(s0)
    5020228a:	87ba                	mv	a5,a4
    5020228c:	0786                	slli	a5,a5,0x1
    5020228e:	97ba                	add	a5,a5,a4
    50202290:	078e                	slli	a5,a5,0x3
    50202292:	97b6                	add	a5,a5,a3
    50202294:	0007a223          	sw	zero,4(a5)
    50202298:	0001                	nop
    5020229a:	60e2                	ld	ra,24(sp)
    5020229c:	6442                	ld	s0,16(sp)
    5020229e:	6105                	addi	sp,sp,32
    502022a0:	8082                	ret

00000000502022a2 <do_mutex_lock_release>:
    502022a2:	7179                	addi	sp,sp,-48
    502022a4:	f406                	sd	ra,40(sp)
    502022a6:	f022                	sd	s0,32(sp)
    502022a8:	1800                	addi	s0,sp,48
    502022aa:	87aa                	mv	a5,a0
    502022ac:	fcf42e23          	sw	a5,-36(s0)
    502022b0:	00006697          	auipc	a3,0x6
    502022b4:	48868693          	addi	a3,a3,1160 # 50208738 <lock>
    502022b8:	fdc42703          	lw	a4,-36(s0)
    502022bc:	87ba                	mv	a5,a4
    502022be:	0786                	slli	a5,a5,0x1
    502022c0:	97ba                	add	a5,a5,a4
    502022c2:	078e                	slli	a5,a5,0x3
    502022c4:	97b6                	add	a5,a5,a3
    502022c6:	0007a023          	sw	zero,0(a5)
    502022ca:	00006697          	auipc	a3,0x6
    502022ce:	46e68693          	addi	a3,a3,1134 # 50208738 <lock>
    502022d2:	fdc42703          	lw	a4,-36(s0)
    502022d6:	87ba                	mv	a5,a4
    502022d8:	0786                	slli	a5,a5,0x1
    502022da:	97ba                	add	a5,a5,a4
    502022dc:	078e                	slli	a5,a5,0x3
    502022de:	97b6                	add	a5,a5,a3
    502022e0:	679c                	ld	a5,8(a5)
    502022e2:	fef43423          	sd	a5,-24(s0)
    502022e6:	a811                	j	502022fa <do_mutex_lock_release+0x58>
    502022e8:	fe843503          	ld	a0,-24(s0)
    502022ec:	564000ef          	jal	ra,50202850 <do_unblock>
    502022f0:	fe843783          	ld	a5,-24(s0)
    502022f4:	639c                	ld	a5,0(a5)
    502022f6:	fef43423          	sd	a5,-24(s0)
    502022fa:	fdc42703          	lw	a4,-36(s0)
    502022fe:	87ba                	mv	a5,a4
    50202300:	0786                	slli	a5,a5,0x1
    50202302:	97ba                	add	a5,a5,a4
    50202304:	078e                	slli	a5,a5,0x3
    50202306:	00006717          	auipc	a4,0x6
    5020230a:	43270713          	addi	a4,a4,1074 # 50208738 <lock>
    5020230e:	97ba                	add	a5,a5,a4
    50202310:	07a1                	addi	a5,a5,8
    50202312:	853e                	mv	a0,a5
    50202314:	dedff0ef          	jal	ra,50202100 <list_empty>
    50202318:	87aa                	mv	a5,a0
    5020231a:	d7f9                	beqz	a5,502022e8 <do_mutex_lock_release+0x46>
    5020231c:	00006697          	auipc	a3,0x6
    50202320:	41c68693          	addi	a3,a3,1052 # 50208738 <lock>
    50202324:	fdc42703          	lw	a4,-36(s0)
    50202328:	87ba                	mv	a5,a4
    5020232a:	0786                	slli	a5,a5,0x1
    5020232c:	97ba                	add	a5,a5,a4
    5020232e:	078e                	slli	a5,a5,0x3
    50202330:	97b6                	add	a5,a5,a3
    50202332:	0007a223          	sw	zero,4(a5)
    50202336:	0001                	nop
    50202338:	70a2                	ld	ra,40(sp)
    5020233a:	7402                	ld	s0,32(sp)
    5020233c:	6145                	addi	sp,sp,48
    5020233e:	8082                	ret

0000000050202340 <__list_add>:
    50202340:	7179                	addi	sp,sp,-48
    50202342:	f422                	sd	s0,40(sp)
    50202344:	1800                	addi	s0,sp,48
    50202346:	fea43423          	sd	a0,-24(s0)
    5020234a:	feb43023          	sd	a1,-32(s0)
    5020234e:	fcc43c23          	sd	a2,-40(s0)
    50202352:	fd843783          	ld	a5,-40(s0)
    50202356:	fe843703          	ld	a4,-24(s0)
    5020235a:	e798                	sd	a4,8(a5)
    5020235c:	fe843783          	ld	a5,-24(s0)
    50202360:	fd843703          	ld	a4,-40(s0)
    50202364:	e398                	sd	a4,0(a5)
    50202366:	fe843783          	ld	a5,-24(s0)
    5020236a:	fe043703          	ld	a4,-32(s0)
    5020236e:	e798                	sd	a4,8(a5)
    50202370:	fe043783          	ld	a5,-32(s0)
    50202374:	fe843703          	ld	a4,-24(s0)
    50202378:	e398                	sd	a4,0(a5)
    5020237a:	0001                	nop
    5020237c:	7422                	ld	s0,40(sp)
    5020237e:	6145                	addi	sp,sp,48
    50202380:	8082                	ret

0000000050202382 <list_add_tail>:
    50202382:	1101                	addi	sp,sp,-32
    50202384:	ec06                	sd	ra,24(sp)
    50202386:	e822                	sd	s0,16(sp)
    50202388:	1000                	addi	s0,sp,32
    5020238a:	fea43423          	sd	a0,-24(s0)
    5020238e:	feb43023          	sd	a1,-32(s0)
    50202392:	fe043783          	ld	a5,-32(s0)
    50202396:	679c                	ld	a5,8(a5)
    50202398:	fe043603          	ld	a2,-32(s0)
    5020239c:	85be                	mv	a1,a5
    5020239e:	fe843503          	ld	a0,-24(s0)
    502023a2:	f9fff0ef          	jal	ra,50202340 <__list_add>
    502023a6:	0001                	nop
    502023a8:	60e2                	ld	ra,24(sp)
    502023aa:	6442                	ld	s0,16(sp)
    502023ac:	6105                	addi	sp,sp,32
    502023ae:	8082                	ret

00000000502023b0 <__list_del>:
    502023b0:	1101                	addi	sp,sp,-32
    502023b2:	ec22                	sd	s0,24(sp)
    502023b4:	1000                	addi	s0,sp,32
    502023b6:	fea43423          	sd	a0,-24(s0)
    502023ba:	feb43023          	sd	a1,-32(s0)
    502023be:	fe043783          	ld	a5,-32(s0)
    502023c2:	fe843703          	ld	a4,-24(s0)
    502023c6:	e798                	sd	a4,8(a5)
    502023c8:	fe843783          	ld	a5,-24(s0)
    502023cc:	fe043703          	ld	a4,-32(s0)
    502023d0:	e398                	sd	a4,0(a5)
    502023d2:	0001                	nop
    502023d4:	6462                	ld	s0,24(sp)
    502023d6:	6105                	addi	sp,sp,32
    502023d8:	8082                	ret

00000000502023da <__list_del_entry>:
    502023da:	1101                	addi	sp,sp,-32
    502023dc:	ec06                	sd	ra,24(sp)
    502023de:	e822                	sd	s0,16(sp)
    502023e0:	1000                	addi	s0,sp,32
    502023e2:	fea43423          	sd	a0,-24(s0)
    502023e6:	fe843783          	ld	a5,-24(s0)
    502023ea:	6798                	ld	a4,8(a5)
    502023ec:	fe843783          	ld	a5,-24(s0)
    502023f0:	639c                	ld	a5,0(a5)
    502023f2:	85be                	mv	a1,a5
    502023f4:	853a                	mv	a0,a4
    502023f6:	fbbff0ef          	jal	ra,502023b0 <__list_del>
    502023fa:	0001                	nop
    502023fc:	60e2                	ld	ra,24(sp)
    502023fe:	6442                	ld	s0,16(sp)
    50202400:	6105                	addi	sp,sp,32
    50202402:	8082                	ret

0000000050202404 <assert_supervisor_mode>:
    50202404:	1141                	addi	sp,sp,-16
    50202406:	e422                	sd	s0,8(sp)
    50202408:	0800                	addi	s0,sp,16
    5020240a:	14002073          	csrr	zero,sscratch
    5020240e:	0001                	nop
    50202410:	6422                	ld	s0,8(sp)
    50202412:	0141                	addi	sp,sp,16
    50202414:	8082                	ret

0000000050202416 <do_fork>:
    50202416:	7139                	addi	sp,sp,-64
    50202418:	fc06                	sd	ra,56(sp)
    5020241a:	f822                	sd	s0,48(sp)
    5020241c:	0080                	addi	s0,sp,64
    5020241e:	81818793          	addi	a5,gp,-2024 # 50206590 <process_id>
    50202422:	439c                	lw	a5,0(a5)
    50202424:	873e                	mv	a4,a5
    50202426:	47c1                	li	a5,16
    50202428:	00e7d463          	bge	a5,a4,50202430 <do_fork+0x1a>
    5020242c:	57fd                	li	a5,-1
    5020242e:	aa4d                	j	502025e0 <do_fork+0x1ca>
    50202430:	06000513          	li	a0,96
    50202434:	0e7000ef          	jal	ra,50202d1a <kmalloc>
    50202438:	fea43423          	sd	a0,-24(s0)
    5020243c:	81818793          	addi	a5,gp,-2024 # 50206590 <process_id>
    50202440:	439c                	lw	a5,0(a5)
    50202442:	0017871b          	addiw	a4,a5,1
    50202446:	0007069b          	sext.w	a3,a4
    5020244a:	81818713          	addi	a4,gp,-2024 # 50206590 <process_id>
    5020244e:	c314                	sw	a3,0(a4)
    50202450:	fe843703          	ld	a4,-24(s0)
    50202454:	d71c                	sw	a5,40(a4)
    50202456:	00006797          	auipc	a5,0x6
    5020245a:	46278793          	addi	a5,a5,1122 # 502088b8 <current_running>
    5020245e:	639c                	ld	a5,0(a5)
    50202460:	5f98                	lw	a4,56(a5)
    50202462:	fe843783          	ld	a5,-24(s0)
    50202466:	df98                	sw	a4,56(a5)
    50202468:	00006797          	auipc	a5,0x6
    5020246c:	45078793          	addi	a5,a5,1104 # 502088b8 <current_running>
    50202470:	639c                	ld	a5,0(a5)
    50202472:	5b98                	lw	a4,48(a5)
    50202474:	fe843783          	ld	a5,-24(s0)
    50202478:	db98                	sw	a4,48(a5)
    5020247a:	00006797          	auipc	a5,0x6
    5020247e:	43e78793          	addi	a5,a5,1086 # 502088b8 <current_running>
    50202482:	639c                	ld	a5,0(a5)
    50202484:	6b98                	ld	a4,16(a5)
    50202486:	fe843783          	ld	a5,-24(s0)
    5020248a:	eb98                	sd	a4,16(a5)
    5020248c:	4505                	li	a0,1
    5020248e:	049000ef          	jal	ra,50202cd6 <allocPage>
    50202492:	872a                	mv	a4,a0
    50202494:	6785                	lui	a5,0x1
    50202496:	973e                	add	a4,a4,a5
    50202498:	fe843783          	ld	a5,-24(s0)
    5020249c:	e798                	sd	a4,8(a5)
    5020249e:	4505                	li	a0,1
    502024a0:	037000ef          	jal	ra,50202cd6 <allocPage>
    502024a4:	872a                	mv	a4,a0
    502024a6:	6785                	lui	a5,0x1
    502024a8:	973e                	add	a4,a4,a5
    502024aa:	fe843783          	ld	a5,-24(s0)
    502024ae:	e398                	sd	a4,0(a5)
    502024b0:	00006797          	auipc	a5,0x6
    502024b4:	40878793          	addi	a5,a5,1032 # 502088b8 <current_running>
    502024b8:	639c                	ld	a5,0(a5)
    502024ba:	6798                	ld	a4,8(a5)
    502024bc:	6785                	lui	a5,0x1
    502024be:	17fd                	addi	a5,a5,-1
    502024c0:	8ff9                	and	a5,a5,a4
    502024c2:	6705                	lui	a4,0x1
    502024c4:	40f707b3          	sub	a5,a4,a5
    502024c8:	fef43023          	sd	a5,-32(s0)
    502024cc:	00006797          	auipc	a5,0x6
    502024d0:	3ec78793          	addi	a5,a5,1004 # 502088b8 <current_running>
    502024d4:	639c                	ld	a5,0(a5)
    502024d6:	6398                	ld	a4,0(a5)
    502024d8:	6785                	lui	a5,0x1
    502024da:	17fd                	addi	a5,a5,-1
    502024dc:	8ff9                	and	a5,a5,a4
    502024de:	6705                	lui	a4,0x1
    502024e0:	40f707b3          	sub	a5,a4,a5
    502024e4:	fcf43c23          	sd	a5,-40(s0)
    502024e8:	fe843783          	ld	a5,-24(s0)
    502024ec:	6798                	ld	a4,8(a5)
    502024ee:	fe043783          	ld	a5,-32(s0)
    502024f2:	8f1d                	sub	a4,a4,a5
    502024f4:	fe843783          	ld	a5,-24(s0)
    502024f8:	e798                	sd	a4,8(a5)
    502024fa:	fe843783          	ld	a5,-24(s0)
    502024fe:	6398                	ld	a4,0(a5)
    50202500:	fd843783          	ld	a5,-40(s0)
    50202504:	8f1d                	sub	a4,a4,a5
    50202506:	fe843783          	ld	a5,-24(s0)
    5020250a:	e398                	sd	a4,0(a5)
    5020250c:	fe843783          	ld	a5,-24(s0)
    50202510:	679c                	ld	a5,8(a5)
    50202512:	873e                	mv	a4,a5
    50202514:	00006797          	auipc	a5,0x6
    50202518:	3a478793          	addi	a5,a5,932 # 502088b8 <current_running>
    5020251c:	639c                	ld	a5,0(a5)
    5020251e:	679c                	ld	a5,8(a5)
    50202520:	86be                	mv	a3,a5
    50202522:	fe043783          	ld	a5,-32(s0)
    50202526:	2781                	sext.w	a5,a5
    50202528:	863e                	mv	a2,a5
    5020252a:	85b6                	mv	a1,a3
    5020252c:	853a                	mv	a0,a4
    5020252e:	1e1010ef          	jal	ra,50203f0e <memcpy>
    50202532:	fe843783          	ld	a5,-24(s0)
    50202536:	639c                	ld	a5,0(a5)
    50202538:	873e                	mv	a4,a5
    5020253a:	00006797          	auipc	a5,0x6
    5020253e:	37e78793          	addi	a5,a5,894 # 502088b8 <current_running>
    50202542:	639c                	ld	a5,0(a5)
    50202544:	639c                	ld	a5,0(a5)
    50202546:	86be                	mv	a3,a5
    50202548:	fd843783          	ld	a5,-40(s0)
    5020254c:	2781                	sext.w	a5,a5
    5020254e:	863e                	mv	a2,a5
    50202550:	85b6                	mv	a1,a3
    50202552:	853a                	mv	a0,a4
    50202554:	1bb010ef          	jal	ra,50203f0e <memcpy>
    50202558:	fe843783          	ld	a5,-24(s0)
    5020255c:	639c                	ld	a5,0(a5)
    5020255e:	07078793          	addi	a5,a5,112
    50202562:	fcf43823          	sd	a5,-48(s0)
    50202566:	fd043783          	ld	a5,-48(s0)
    5020256a:	0407b423          	sd	zero,72(a5)
    5020256e:	fe843783          	ld	a5,-24(s0)
    50202572:	639c                	ld	a5,0(a5)
    50202574:	fcf43423          	sd	a5,-56(s0)
    50202578:	fe843783          	ld	a5,-24(s0)
    5020257c:	5b9c                	lw	a5,48(a5)
    5020257e:	873e                	mv	a4,a5
    50202580:	4789                	li	a5,2
    50202582:	40f707b3          	sub	a5,a4,a5
    50202586:	0017b793          	seqz	a5,a5
    5020258a:	0ff7f713          	andi	a4,a5,255
    5020258e:	fe843783          	ld	a5,-24(s0)
    50202592:	5b9c                	lw	a5,48(a5)
    50202594:	86be                	mv	a3,a5
    50202596:	478d                	li	a5,3
    50202598:	40f687b3          	sub	a5,a3,a5
    5020259c:	0017b793          	seqz	a5,a5
    502025a0:	0ff7f793          	andi	a5,a5,255
    502025a4:	8fd9                	or	a5,a5,a4
    502025a6:	0ff7f793          	andi	a5,a5,255
    502025aa:	cb81                	beqz	a5,502025ba <do_fork+0x1a4>
    502025ac:	fffff717          	auipc	a4,0xfffff
    502025b0:	b6070713          	addi	a4,a4,-1184 # 5020110c <ret_from_exception>
    502025b4:	fc843783          	ld	a5,-56(s0)
    502025b8:	e398                	sd	a4,0(a5)
    502025ba:	fe843783          	ld	a5,-24(s0)
    502025be:	6398                	ld	a4,0(a5)
    502025c0:	fc843783          	ld	a5,-56(s0)
    502025c4:	e798                	sd	a4,8(a5)
    502025c6:	fe843783          	ld	a5,-24(s0)
    502025ca:	07e1                	addi	a5,a5,24
    502025cc:	00004597          	auipc	a1,0x4
    502025d0:	e8c58593          	addi	a1,a1,-372 # 50206458 <ready_queue>
    502025d4:	853e                	mv	a0,a5
    502025d6:	dadff0ef          	jal	ra,50202382 <list_add_tail>
    502025da:	fe843783          	ld	a5,-24(s0)
    502025de:	579c                	lw	a5,40(a5)
    502025e0:	853e                	mv	a0,a5
    502025e2:	70e2                	ld	ra,56(sp)
    502025e4:	7442                	ld	s0,48(sp)
    502025e6:	6121                	addi	sp,sp,64
    502025e8:	8082                	ret

00000000502025ea <do_scheduler>:
    502025ea:	7179                	addi	sp,sp,-48
    502025ec:	f406                	sd	ra,40(sp)
    502025ee:	f022                	sd	s0,32(sp)
    502025f0:	1800                	addi	s0,sp,48
    502025f2:	e13ff0ef          	jal	ra,50202404 <assert_supervisor_mode>
    502025f6:	00006797          	auipc	a5,0x6
    502025fa:	2c278793          	addi	a5,a5,706 # 502088b8 <current_running>
    502025fe:	639c                	ld	a5,0(a5)
    50202600:	fef43423          	sd	a5,-24(s0)
    50202604:	fe843703          	ld	a4,-24(s0)
    50202608:	00004797          	auipc	a5,0x4
    5020260c:	df078793          	addi	a5,a5,-528 # 502063f8 <pid0_pcb>
    50202610:	02f70763          	beq	a4,a5,5020263e <do_scheduler+0x54>
    50202614:	fe843783          	ld	a5,-24(s0)
    50202618:	5f9c                	lw	a5,56(a5)
    5020261a:	873e                	mv	a4,a5
    5020261c:	4785                	li	a5,1
    5020261e:	02f71063          	bne	a4,a5,5020263e <do_scheduler+0x54>
    50202622:	fe843783          	ld	a5,-24(s0)
    50202626:	07e1                	addi	a5,a5,24
    50202628:	00004597          	auipc	a1,0x4
    5020262c:	e3058593          	addi	a1,a1,-464 # 50206458 <ready_queue>
    50202630:	853e                	mv	a0,a5
    50202632:	d51ff0ef          	jal	ra,50202382 <list_add_tail>
    50202636:	fe843783          	ld	a5,-24(s0)
    5020263a:	4709                	li	a4,2
    5020263c:	df98                	sw	a4,56(a5)
    5020263e:	00004797          	auipc	a5,0x4
    50202642:	e1a78793          	addi	a5,a5,-486 # 50206458 <ready_queue>
    50202646:	639c                	ld	a5,0(a5)
    50202648:	fef43023          	sd	a5,-32(s0)
    5020264c:	fe043783          	ld	a5,-32(s0)
    50202650:	fe878713          	addi	a4,a5,-24
    50202654:	00006797          	auipc	a5,0x6
    50202658:	26478793          	addi	a5,a5,612 # 502088b8 <current_running>
    5020265c:	e398                	sd	a4,0(a5)
    5020265e:	00006797          	auipc	a5,0x6
    50202662:	25a78793          	addi	a5,a5,602 # 502088b8 <current_running>
    50202666:	639c                	ld	a5,0(a5)
    50202668:	07e1                	addi	a5,a5,24
    5020266a:	853e                	mv	a0,a5
    5020266c:	d6fff0ef          	jal	ra,502023da <__list_del_entry>
    50202670:	00006797          	auipc	a5,0x6
    50202674:	24878793          	addi	a5,a5,584 # 502088b8 <current_running>
    50202678:	639c                	ld	a5,0(a5)
    5020267a:	4705                	li	a4,1
    5020267c:	df98                	sw	a4,56(a5)
    5020267e:	59a000ef          	jal	ra,50202c18 <get_ticks>
    50202682:	fca43c23          	sd	a0,-40(s0)
    50202686:	00006797          	auipc	a5,0x6
    5020268a:	23278793          	addi	a5,a5,562 # 502088b8 <current_running>
    5020268e:	639c                	ld	a5,0(a5)
    50202690:	fd843703          	ld	a4,-40(s0)
    50202694:	ebb8                	sd	a4,80(a5)
    50202696:	00006797          	auipc	a5,0x6
    5020269a:	22278793          	addi	a5,a5,546 # 502088b8 <current_running>
    5020269e:	639c                	ld	a5,0(a5)
    502026a0:	4fb8                	lw	a4,88(a5)
    502026a2:	00006797          	auipc	a5,0x6
    502026a6:	21678793          	addi	a5,a5,534 # 502088b8 <current_running>
    502026aa:	639c                	ld	a5,0(a5)
    502026ac:	4ffc                	lw	a5,92(a5)
    502026ae:	85be                	mv	a1,a5
    502026b0:	853a                	mv	a0,a4
    502026b2:	ddcff0ef          	jal	ra,50201c8e <vt100_move_cursor>
    502026b6:	00006797          	auipc	a5,0x6
    502026ba:	20278793          	addi	a5,a5,514 # 502088b8 <current_running>
    502026be:	639c                	ld	a5,0(a5)
    502026c0:	4fb8                	lw	a4,88(a5)
    502026c2:	00006797          	auipc	a5,0x6
    502026c6:	06e78793          	addi	a5,a5,110 # 50208730 <screen_cursor_x>
    502026ca:	c398                	sw	a4,0(a5)
    502026cc:	00006797          	auipc	a5,0x6
    502026d0:	1ec78793          	addi	a5,a5,492 # 502088b8 <current_running>
    502026d4:	639c                	ld	a5,0(a5)
    502026d6:	4ff8                	lw	a4,92(a5)
    502026d8:	00006797          	auipc	a5,0x6
    502026dc:	05c78793          	addi	a5,a5,92 # 50208734 <screen_cursor_y>
    502026e0:	c398                	sw	a4,0(a5)
    502026e2:	00006797          	auipc	a5,0x6
    502026e6:	1d678793          	addi	a5,a5,470 # 502088b8 <current_running>
    502026ea:	639c                	ld	a5,0(a5)
    502026ec:	85be                	mv	a1,a5
    502026ee:	fe843503          	ld	a0,-24(s0)
    502026f2:	9d3fe0ef          	jal	ra,502010c4 <switch_to>
    502026f6:	0001                	nop
    502026f8:	70a2                	ld	ra,40(sp)
    502026fa:	7402                	ld	s0,32(sp)
    502026fc:	6145                	addi	sp,sp,48
    502026fe:	8082                	ret

0000000050202700 <do_sleep>:
    50202700:	7179                	addi	sp,sp,-48
    50202702:	f406                	sd	ra,40(sp)
    50202704:	f022                	sd	s0,32(sp)
    50202706:	1800                	addi	s0,sp,48
    50202708:	87aa                	mv	a5,a0
    5020270a:	fcf42e23          	sw	a5,-36(s0)
    5020270e:	00006797          	auipc	a5,0x6
    50202712:	1aa78793          	addi	a5,a5,426 # 502088b8 <current_running>
    50202716:	639c                	ld	a5,0(a5)
    50202718:	0207ac23          	sw	zero,56(a5)
    5020271c:	51a000ef          	jal	ra,50202c36 <get_timer>
    50202720:	fea43423          	sd	a0,-24(s0)
    50202724:	fdc46783          	lwu	a5,-36(s0)
    50202728:	fe843703          	ld	a4,-24(s0)
    5020272c:	97ba                	add	a5,a5,a4
    5020272e:	fef43023          	sd	a5,-32(s0)
    50202732:	00006797          	auipc	a5,0x6
    50202736:	18678793          	addi	a5,a5,390 # 502088b8 <current_running>
    5020273a:	639c                	ld	a5,0(a5)
    5020273c:	fe043703          	ld	a4,-32(s0)
    50202740:	e3b8                	sd	a4,64(a5)
    50202742:	00006797          	auipc	a5,0x6
    50202746:	17678793          	addi	a5,a5,374 # 502088b8 <current_running>
    5020274a:	639c                	ld	a5,0(a5)
    5020274c:	07e1                	addi	a5,a5,24
    5020274e:	fe043603          	ld	a2,-32(s0)
    50202752:	00004597          	auipc	a1,0x4
    50202756:	d2658593          	addi	a1,a1,-730 # 50206478 <timers>
    5020275a:	853e                	mv	a0,a5
    5020275c:	03e000ef          	jal	ra,5020279a <add_time_queue>
    50202760:	e8bff0ef          	jal	ra,502025ea <do_scheduler>
    50202764:	0001                	nop
    50202766:	70a2                	ld	ra,40(sp)
    50202768:	7402                	ld	s0,32(sp)
    5020276a:	6145                	addi	sp,sp,48
    5020276c:	8082                	ret

000000005020276e <check_sleep>:
    5020276e:	7179                	addi	sp,sp,-48
    50202770:	f422                	sd	s0,40(sp)
    50202772:	1800                	addi	s0,sp,48
    50202774:	fca43c23          	sd	a0,-40(s0)
    50202778:	fd843783          	ld	a5,-40(s0)
    5020277c:	639c                	ld	a5,0(a5)
    5020277e:	fef43423          	sd	a5,-24(s0)
    50202782:	fe843783          	ld	a5,-24(s0)
    50202786:	17a1                	addi	a5,a5,-24
    50202788:	fef43023          	sd	a5,-32(s0)
    5020278c:	fe043783          	ld	a5,-32(s0)
    50202790:	63bc                	ld	a5,64(a5)
    50202792:	853e                	mv	a0,a5
    50202794:	7422                	ld	s0,40(sp)
    50202796:	6145                	addi	sp,sp,48
    50202798:	8082                	ret

000000005020279a <add_time_queue>:
    5020279a:	715d                	addi	sp,sp,-80
    5020279c:	e486                	sd	ra,72(sp)
    5020279e:	e0a2                	sd	s0,64(sp)
    502027a0:	0880                	addi	s0,sp,80
    502027a2:	fca43423          	sd	a0,-56(s0)
    502027a6:	fcb43023          	sd	a1,-64(s0)
    502027aa:	fac43c23          	sd	a2,-72(s0)
    502027ae:	fe042223          	sw	zero,-28(s0)
    502027b2:	fc043783          	ld	a5,-64(s0)
    502027b6:	639c                	ld	a5,0(a5)
    502027b8:	fef43423          	sd	a5,-24(s0)
    502027bc:	a091                	j	50202800 <add_time_queue+0x66>
    502027be:	fe843783          	ld	a5,-24(s0)
    502027c2:	fcf43c23          	sd	a5,-40(s0)
    502027c6:	fd843783          	ld	a5,-40(s0)
    502027ca:	17a1                	addi	a5,a5,-24
    502027cc:	fcf43823          	sd	a5,-48(s0)
    502027d0:	fd043783          	ld	a5,-48(s0)
    502027d4:	63bc                	ld	a5,64(a5)
    502027d6:	fb843703          	ld	a4,-72(s0)
    502027da:	00f77e63          	bgeu	a4,a5,502027f6 <add_time_queue+0x5c>
    502027de:	fe843583          	ld	a1,-24(s0)
    502027e2:	fc843503          	ld	a0,-56(s0)
    502027e6:	b9dff0ef          	jal	ra,50202382 <list_add_tail>
    502027ea:	fe442783          	lw	a5,-28(s0)
    502027ee:	2785                	addiw	a5,a5,1
    502027f0:	fef42223          	sw	a5,-28(s0)
    502027f4:	a821                	j	5020280c <add_time_queue+0x72>
    502027f6:	fe843783          	ld	a5,-24(s0)
    502027fa:	639c                	ld	a5,0(a5)
    502027fc:	fef43423          	sd	a5,-24(s0)
    50202800:	fe843703          	ld	a4,-24(s0)
    50202804:	fc043783          	ld	a5,-64(s0)
    50202808:	faf71be3          	bne	a4,a5,502027be <add_time_queue+0x24>
    5020280c:	fe442783          	lw	a5,-28(s0)
    50202810:	2781                	sext.w	a5,a5
    50202812:	e799                	bnez	a5,50202820 <add_time_queue+0x86>
    50202814:	fc043583          	ld	a1,-64(s0)
    50202818:	fc843503          	ld	a0,-56(s0)
    5020281c:	b67ff0ef          	jal	ra,50202382 <list_add_tail>
    50202820:	0001                	nop
    50202822:	60a6                	ld	ra,72(sp)
    50202824:	6406                	ld	s0,64(sp)
    50202826:	6161                	addi	sp,sp,80
    50202828:	8082                	ret

000000005020282a <do_block>:
    5020282a:	1101                	addi	sp,sp,-32
    5020282c:	ec06                	sd	ra,24(sp)
    5020282e:	e822                	sd	s0,16(sp)
    50202830:	1000                	addi	s0,sp,32
    50202832:	fea43423          	sd	a0,-24(s0)
    50202836:	feb43023          	sd	a1,-32(s0)
    5020283a:	fe043583          	ld	a1,-32(s0)
    5020283e:	fe843503          	ld	a0,-24(s0)
    50202842:	b41ff0ef          	jal	ra,50202382 <list_add_tail>
    50202846:	0001                	nop
    50202848:	60e2                	ld	ra,24(sp)
    5020284a:	6442                	ld	s0,16(sp)
    5020284c:	6105                	addi	sp,sp,32
    5020284e:	8082                	ret

0000000050202850 <do_unblock>:
    50202850:	7179                	addi	sp,sp,-48
    50202852:	f406                	sd	ra,40(sp)
    50202854:	f022                	sd	s0,32(sp)
    50202856:	1800                	addi	s0,sp,48
    50202858:	fca43c23          	sd	a0,-40(s0)
    5020285c:	fd843503          	ld	a0,-40(s0)
    50202860:	b7bff0ef          	jal	ra,502023da <__list_del_entry>
    50202864:	fd843783          	ld	a5,-40(s0)
    50202868:	fef43423          	sd	a5,-24(s0)
    5020286c:	fe843783          	ld	a5,-24(s0)
    50202870:	17a1                	addi	a5,a5,-24
    50202872:	fef43023          	sd	a5,-32(s0)
    50202876:	fe043783          	ld	a5,-32(s0)
    5020287a:	4709                	li	a4,2
    5020287c:	df98                	sw	a4,56(a5)
    5020287e:	00004597          	auipc	a1,0x4
    50202882:	bda58593          	addi	a1,a1,-1062 # 50206458 <ready_queue>
    50202886:	fd843503          	ld	a0,-40(s0)
    5020288a:	af9ff0ef          	jal	ra,50202382 <list_add_tail>
    5020288e:	0001                	nop
    50202890:	70a2                	ld	ra,40(sp)
    50202892:	7402                	ld	s0,32(sp)
    50202894:	6145                	addi	sp,sp,48
    50202896:	8082                	ret

0000000050202898 <do_prior>:
    50202898:	1101                	addi	sp,sp,-32
    5020289a:	ec22                	sd	s0,24(sp)
    5020289c:	1000                	addi	s0,sp,32
    5020289e:	87aa                	mv	a5,a0
    502028a0:	fef42623          	sw	a5,-20(s0)
    502028a4:	00006797          	auipc	a5,0x6
    502028a8:	01478793          	addi	a5,a5,20 # 502088b8 <current_running>
    502028ac:	639c                	ld	a5,0(a5)
    502028ae:	fec42703          	lw	a4,-20(s0)
    502028b2:	c7b8                	sw	a4,72(a5)
    502028b4:	0001                	nop
    502028b6:	6462                	ld	s0,24(sp)
    502028b8:	6105                	addi	sp,sp,32
    502028ba:	8082                	ret

00000000502028bc <prior_sched>:
    502028bc:	715d                	addi	sp,sp,-80
    502028be:	e486                	sd	ra,72(sp)
    502028c0:	e0a2                	sd	s0,64(sp)
    502028c2:	0880                	addi	s0,sp,80
    502028c4:	fc042e23          	sw	zero,-36(s0)
    502028c8:	00004797          	auipc	a5,0x4
    502028cc:	b9078793          	addi	a5,a5,-1136 # 50206458 <ready_queue>
    502028d0:	639c                	ld	a5,0(a5)
    502028d2:	fcf43823          	sd	a5,-48(s0)
    502028d6:	fd043783          	ld	a5,-48(s0)
    502028da:	17a1                	addi	a5,a5,-24
    502028dc:	fef43423          	sd	a5,-24(s0)
    502028e0:	00004797          	auipc	a5,0x4
    502028e4:	b7878793          	addi	a5,a5,-1160 # 50206458 <ready_queue>
    502028e8:	639c                	ld	a5,0(a5)
    502028ea:	fef43023          	sd	a5,-32(s0)
    502028ee:	a8a1                	j	50202946 <prior_sched+0x8a>
    502028f0:	fe043783          	ld	a5,-32(s0)
    502028f4:	fcf43423          	sd	a5,-56(s0)
    502028f8:	fc843783          	ld	a5,-56(s0)
    502028fc:	17a1                	addi	a5,a5,-24
    502028fe:	fcf43023          	sd	a5,-64(s0)
    50202902:	fc043783          	ld	a5,-64(s0)
    50202906:	47b8                	lw	a4,72(a5)
    50202908:	fc043783          	ld	a5,-64(s0)
    5020290c:	6bbc                	ld	a5,80(a5)
    5020290e:	85be                	mv	a1,a5
    50202910:	853a                	mv	a0,a4
    50202912:	052000ef          	jal	ra,50202964 <do_score>
    50202916:	87aa                	mv	a5,a0
    50202918:	faf42e23          	sw	a5,-68(s0)
    5020291c:	fdc42703          	lw	a4,-36(s0)
    50202920:	fbc42783          	lw	a5,-68(s0)
    50202924:	2701                	sext.w	a4,a4
    50202926:	2781                	sext.w	a5,a5
    50202928:	00f75a63          	bge	a4,a5,5020293c <prior_sched+0x80>
    5020292c:	fbc42783          	lw	a5,-68(s0)
    50202930:	fcf42e23          	sw	a5,-36(s0)
    50202934:	fc043783          	ld	a5,-64(s0)
    50202938:	fef43423          	sd	a5,-24(s0)
    5020293c:	fe043783          	ld	a5,-32(s0)
    50202940:	639c                	ld	a5,0(a5)
    50202942:	fef43023          	sd	a5,-32(s0)
    50202946:	fe043703          	ld	a4,-32(s0)
    5020294a:	00004797          	auipc	a5,0x4
    5020294e:	b0e78793          	addi	a5,a5,-1266 # 50206458 <ready_queue>
    50202952:	f8f71fe3          	bne	a4,a5,502028f0 <prior_sched+0x34>
    50202956:	fe843783          	ld	a5,-24(s0)
    5020295a:	853e                	mv	a0,a5
    5020295c:	60a6                	ld	ra,72(sp)
    5020295e:	6406                	ld	s0,64(sp)
    50202960:	6161                	addi	sp,sp,80
    50202962:	8082                	ret

0000000050202964 <do_score>:
    50202964:	7179                	addi	sp,sp,-48
    50202966:	f406                	sd	ra,40(sp)
    50202968:	f022                	sd	s0,32(sp)
    5020296a:	1800                	addi	s0,sp,48
    5020296c:	87aa                	mv	a5,a0
    5020296e:	fcb43823          	sd	a1,-48(s0)
    50202972:	fcf42e23          	sw	a5,-36(s0)
    50202976:	2a2000ef          	jal	ra,50202c18 <get_ticks>
    5020297a:	87aa                	mv	a5,a0
    5020297c:	0007871b          	sext.w	a4,a5
    50202980:	fd043783          	ld	a5,-48(s0)
    50202984:	2781                	sext.w	a5,a5
    50202986:	40f707bb          	subw	a5,a4,a5
    5020298a:	0007871b          	sext.w	a4,a5
    5020298e:	83818793          	addi	a5,gp,-1992 # 502065b0 <time_base>
    50202992:	439c                	lw	a5,0(a5)
    50202994:	86be                	mv	a3,a5
    50202996:	3e800793          	li	a5,1000
    5020299a:	02f6d7bb          	divuw	a5,a3,a5
    5020299e:	2781                	sext.w	a5,a5
    502029a0:	02f757bb          	divuw	a5,a4,a5
    502029a4:	2781                	sext.w	a5,a5
    502029a6:	fef42623          	sw	a5,-20(s0)
    502029aa:	fdc42703          	lw	a4,-36(s0)
    502029ae:	87ba                	mv	a5,a4
    502029b0:	0027979b          	slliw	a5,a5,0x2
    502029b4:	9fb9                	addw	a5,a5,a4
    502029b6:	0017979b          	slliw	a5,a5,0x1
    502029ba:	2781                	sext.w	a5,a5
    502029bc:	fec42703          	lw	a4,-20(s0)
    502029c0:	9fb9                	addw	a5,a5,a4
    502029c2:	2781                	sext.w	a5,a5
    502029c4:	853e                	mv	a0,a5
    502029c6:	70a2                	ld	ra,40(sp)
    502029c8:	7402                	ld	s0,32(sp)
    502029ca:	6145                	addi	sp,sp,48
    502029cc:	8082                	ret

00000000502029ce <process_show>:
    502029ce:	1141                	addi	sp,sp,-16
    502029d0:	e406                	sd	ra,8(sp)
    502029d2:	e022                	sd	s0,0(sp)
    502029d4:	0800                	addi	s0,sp,16
    502029d6:	00006797          	auipc	a5,0x6
    502029da:	ee278793          	addi	a5,a5,-286 # 502088b8 <current_running>
    502029de:	639c                	ld	a5,0(a5)
    502029e0:	579c                	lw	a5,40(a5)
    502029e2:	85be                	mv	a1,a5
    502029e4:	00003517          	auipc	a0,0x3
    502029e8:	33450513          	addi	a0,a0,820 # 50205d18 <__FUNCTION__.1433+0x30>
    502029ec:	591000ef          	jal	ra,5020377c <printk>
    502029f0:	d8cff0ef          	jal	ra,50201f7c <screen_reflush>
    502029f4:	0001                	nop
    502029f6:	60a2                	ld	ra,8(sp)
    502029f8:	6402                	ld	s0,0(sp)
    502029fa:	0141                	addi	sp,sp,16
    502029fc:	8082                	ret

00000000502029fe <release_sources>:
    502029fe:	1101                	addi	sp,sp,-32
    50202a00:	ec06                	sd	ra,24(sp)
    50202a02:	e822                	sd	s0,16(sp)
    50202a04:	1000                	addi	s0,sp,32
    50202a06:	fea43423          	sd	a0,-24(s0)
    50202a0a:	fe843783          	ld	a5,-24(s0)
    50202a0e:	470d                	li	a4,3
    50202a10:	df98                	sw	a4,56(a5)
    50202a12:	fe843783          	ld	a5,-24(s0)
    50202a16:	579c                	lw	a5,40(a5)
    50202a18:	00006717          	auipc	a4,0x6
    50202a1c:	b6870713          	addi	a4,a4,-1176 # 50208580 <pid_allocated>
    50202a20:	078a                	slli	a5,a5,0x2
    50202a22:	97ba                	add	a5,a5,a4
    50202a24:	0007a023          	sw	zero,0(a5)
    50202a28:	fe843783          	ld	a5,-24(s0)
    50202a2c:	07e1                	addi	a5,a5,24
    50202a2e:	853e                	mv	a0,a5
    50202a30:	9abff0ef          	jal	ra,502023da <__list_del_entry>
    50202a34:	0001                	nop
    50202a36:	60e2                	ld	ra,24(sp)
    50202a38:	6442                	ld	s0,16(sp)
    50202a3a:	6105                	addi	sp,sp,32
    50202a3c:	8082                	ret

0000000050202a3e <do_zombie>:
    50202a3e:	1101                	addi	sp,sp,-32
    50202a40:	ec06                	sd	ra,24(sp)
    50202a42:	e822                	sd	s0,16(sp)
    50202a44:	1000                	addi	s0,sp,32
    50202a46:	fea43423          	sd	a0,-24(s0)
    50202a4a:	fe843783          	ld	a5,-24(s0)
    50202a4e:	4711                	li	a4,4
    50202a50:	df98                	sw	a4,56(a5)
    50202a52:	fe843783          	ld	a5,-24(s0)
    50202a56:	57dc                	lw	a5,44(a5)
    50202a58:	c795                	beqz	a5,50202a84 <do_zombie+0x46>
    50202a5a:	fe843783          	ld	a5,-24(s0)
    50202a5e:	57dc                	lw	a5,44(a5)
    50202a60:	37fd                	addiw	a5,a5,-1
    50202a62:	0007871b          	sext.w	a4,a5
    50202a66:	87ba                	mv	a5,a4
    50202a68:	0786                	slli	a5,a5,0x1
    50202a6a:	97ba                	add	a5,a5,a4
    50202a6c:	0796                	slli	a5,a5,0x5
    50202a6e:	01078713          	addi	a4,a5,16
    50202a72:	00006797          	auipc	a5,0x6
    50202a76:	e4e78793          	addi	a5,a5,-434 # 502088c0 <pcb>
    50202a7a:	97ba                	add	a5,a5,a4
    50202a7c:	07a1                	addi	a5,a5,8
    50202a7e:	853e                	mv	a0,a5
    50202a80:	dd1ff0ef          	jal	ra,50202850 <do_unblock>
    50202a84:	0001                	nop
    50202a86:	60e2                	ld	ra,24(sp)
    50202a88:	6442                	ld	s0,16(sp)
    50202a8a:	6105                	addi	sp,sp,32
    50202a8c:	8082                	ret

0000000050202a8e <exit>:
    50202a8e:	1141                	addi	sp,sp,-16
    50202a90:	e406                	sd	ra,8(sp)
    50202a92:	e022                	sd	s0,0(sp)
    50202a94:	0800                	addi	s0,sp,16
    50202a96:	00006797          	auipc	a5,0x6
    50202a9a:	e2278793          	addi	a5,a5,-478 # 502088b8 <current_running>
    50202a9e:	639c                	ld	a5,0(a5)
    50202aa0:	0207aa23          	sw	zero,52(a5)
    50202aa4:	00006797          	auipc	a5,0x6
    50202aa8:	e1478793          	addi	a5,a5,-492 # 502088b8 <current_running>
    50202aac:	639c                	ld	a5,0(a5)
    50202aae:	853e                	mv	a0,a5
    50202ab0:	f4fff0ef          	jal	ra,502029fe <release_sources>
    50202ab4:	b37ff0ef          	jal	ra,502025ea <do_scheduler>
    50202ab8:	0001                	nop
    50202aba:	60a2                	ld	ra,8(sp)
    50202abc:	6402                	ld	s0,0(sp)
    50202abe:	0141                	addi	sp,sp,16
    50202ac0:	8082                	ret

0000000050202ac2 <waitpid>:
    50202ac2:	7179                	addi	sp,sp,-48
    50202ac4:	f406                	sd	ra,40(sp)
    50202ac6:	f022                	sd	s0,32(sp)
    50202ac8:	1800                	addi	s0,sp,48
    50202aca:	87aa                	mv	a5,a0
    50202acc:	fcf42e23          	sw	a5,-36(s0)
    50202ad0:	fdc42783          	lw	a5,-36(s0)
    50202ad4:	37fd                	addiw	a5,a5,-1
    50202ad6:	0007871b          	sext.w	a4,a5
    50202ada:	87ba                	mv	a5,a4
    50202adc:	0786                	slli	a5,a5,0x1
    50202ade:	97ba                	add	a5,a5,a4
    50202ae0:	0796                	slli	a5,a5,0x5
    50202ae2:	00006717          	auipc	a4,0x6
    50202ae6:	dde70713          	addi	a4,a4,-546 # 502088c0 <pcb>
    50202aea:	97ba                	add	a5,a5,a4
    50202aec:	fef43423          	sd	a5,-24(s0)
    50202af0:	fe843783          	ld	a5,-24(s0)
    50202af4:	5f9c                	lw	a5,56(a5)
    50202af6:	873e                	mv	a4,a5
    50202af8:	4791                	li	a5,4
    50202afa:	02f70f63          	beq	a4,a5,50202b38 <waitpid+0x76>
    50202afe:	fe843783          	ld	a5,-24(s0)
    50202b02:	5f9c                	lw	a5,56(a5)
    50202b04:	873e                	mv	a4,a5
    50202b06:	478d                	li	a5,3
    50202b08:	02f70863          	beq	a4,a5,50202b38 <waitpid+0x76>
    50202b0c:	00006797          	auipc	a5,0x6
    50202b10:	dac78793          	addi	a5,a5,-596 # 502088b8 <current_running>
    50202b14:	639c                	ld	a5,0(a5)
    50202b16:	5798                	lw	a4,40(a5)
    50202b18:	fe843783          	ld	a5,-24(s0)
    50202b1c:	d7d8                	sw	a4,44(a5)
    50202b1e:	00006797          	auipc	a5,0x6
    50202b22:	d9a78793          	addi	a5,a5,-614 # 502088b8 <current_running>
    50202b26:	639c                	ld	a5,0(a5)
    50202b28:	07e1                	addi	a5,a5,24
    50202b2a:	00004597          	auipc	a1,0x4
    50202b2e:	93e58593          	addi	a1,a1,-1730 # 50206468 <wait_queue>
    50202b32:	853e                	mv	a0,a5
    50202b34:	cf7ff0ef          	jal	ra,5020282a <do_block>
    50202b38:	fe843783          	ld	a5,-24(s0)
    50202b3c:	5f9c                	lw	a5,56(a5)
    50202b3e:	873e                	mv	a4,a5
    50202b40:	4791                	li	a5,4
    50202b42:	00f71663          	bne	a4,a5,50202b4e <waitpid+0x8c>
    50202b46:	fe843503          	ld	a0,-24(s0)
    50202b4a:	eb5ff0ef          	jal	ra,502029fe <release_sources>
    50202b4e:	fdc42783          	lw	a5,-36(s0)
    50202b52:	853e                	mv	a0,a5
    50202b54:	70a2                	ld	ra,40(sp)
    50202b56:	7402                	ld	s0,32(sp)
    50202b58:	6145                	addi	sp,sp,48
    50202b5a:	8082                	ret

0000000050202b5c <kill>:
    50202b5c:	7179                	addi	sp,sp,-48
    50202b5e:	f406                	sd	ra,40(sp)
    50202b60:	f022                	sd	s0,32(sp)
    50202b62:	1800                	addi	s0,sp,48
    50202b64:	87aa                	mv	a5,a0
    50202b66:	fcf42e23          	sw	a5,-36(s0)
    50202b6a:	fdc42783          	lw	a5,-36(s0)
    50202b6e:	2781                	sext.w	a5,a5
    50202b70:	02f05363          	blez	a5,50202b96 <kill+0x3a>
    50202b74:	fdc42783          	lw	a5,-36(s0)
    50202b78:	0007871b          	sext.w	a4,a5
    50202b7c:	47c1                	li	a5,16
    50202b7e:	00e7cc63          	blt	a5,a4,50202b96 <kill+0x3a>
    50202b82:	00006717          	auipc	a4,0x6
    50202b86:	9fe70713          	addi	a4,a4,-1538 # 50208580 <pid_allocated>
    50202b8a:	fdc42783          	lw	a5,-36(s0)
    50202b8e:	078a                	slli	a5,a5,0x2
    50202b90:	97ba                	add	a5,a5,a4
    50202b92:	439c                	lw	a5,0(a5)
    50202b94:	e399                	bnez	a5,50202b9a <kill+0x3e>
    50202b96:	4781                	li	a5,0
    50202b98:	a8b1                	j	50202bf4 <kill+0x98>
    50202b9a:	fdc42783          	lw	a5,-36(s0)
    50202b9e:	0007871b          	sext.w	a4,a5
    50202ba2:	4785                	li	a5,1
    50202ba4:	00f71a63          	bne	a4,a5,50202bb8 <kill+0x5c>
    50202ba8:	00003517          	auipc	a0,0x3
    50202bac:	19050513          	addi	a0,a0,400 # 50205d38 <__FUNCTION__.1433+0x50>
    50202bb0:	3cd000ef          	jal	ra,5020377c <printk>
    50202bb4:	4781                	li	a5,0
    50202bb6:	a83d                	j	50202bf4 <kill+0x98>
    50202bb8:	fdc42783          	lw	a5,-36(s0)
    50202bbc:	37fd                	addiw	a5,a5,-1
    50202bbe:	0007871b          	sext.w	a4,a5
    50202bc2:	87ba                	mv	a5,a4
    50202bc4:	0786                	slli	a5,a5,0x1
    50202bc6:	97ba                	add	a5,a5,a4
    50202bc8:	0796                	slli	a5,a5,0x5
    50202bca:	00006717          	auipc	a4,0x6
    50202bce:	cf670713          	addi	a4,a4,-778 # 502088c0 <pcb>
    50202bd2:	97ba                	add	a5,a5,a4
    50202bd4:	fef43423          	sd	a5,-24(s0)
    50202bd8:	fe843783          	ld	a5,-24(s0)
    50202bdc:	5bdc                	lw	a5,52(a5)
    50202bde:	e791                	bnez	a5,50202bea <kill+0x8e>
    50202be0:	fe843503          	ld	a0,-24(s0)
    50202be4:	e5bff0ef          	jal	ra,50202a3e <do_zombie>
    50202be8:	a029                	j	50202bf2 <kill+0x96>
    50202bea:	fe843503          	ld	a0,-24(s0)
    50202bee:	e11ff0ef          	jal	ra,502029fe <release_sources>
    50202bf2:	4785                	li	a5,1
    50202bf4:	853e                	mv	a0,a5
    50202bf6:	70a2                	ld	ra,40(sp)
    50202bf8:	7402                	ld	s0,32(sp)
    50202bfa:	6145                	addi	sp,sp,48
    50202bfc:	8082                	ret

0000000050202bfe <getpid>:
    50202bfe:	1141                	addi	sp,sp,-16
    50202c00:	e422                	sd	s0,8(sp)
    50202c02:	0800                	addi	s0,sp,16
    50202c04:	00006797          	auipc	a5,0x6
    50202c08:	cb478793          	addi	a5,a5,-844 # 502088b8 <current_running>
    50202c0c:	639c                	ld	a5,0(a5)
    50202c0e:	579c                	lw	a5,40(a5)
    50202c10:	853e                	mv	a0,a5
    50202c12:	6422                	ld	s0,8(sp)
    50202c14:	0141                	addi	sp,sp,16
    50202c16:	8082                	ret

0000000050202c18 <get_ticks>:
    50202c18:	1141                	addi	sp,sp,-16
    50202c1a:	e422                	sd	s0,8(sp)
    50202c1c:	0800                	addi	s0,sp,16
    50202c1e:	c0102773          	rdtime	a4
    50202c22:	83018793          	addi	a5,gp,-2000 # 502065a8 <time_elapsed>
    50202c26:	e398                	sd	a4,0(a5)
    50202c28:	83018793          	addi	a5,gp,-2000 # 502065a8 <time_elapsed>
    50202c2c:	639c                	ld	a5,0(a5)
    50202c2e:	853e                	mv	a0,a5
    50202c30:	6422                	ld	s0,8(sp)
    50202c32:	0141                	addi	sp,sp,16
    50202c34:	8082                	ret

0000000050202c36 <get_timer>:
    50202c36:	1141                	addi	sp,sp,-16
    50202c38:	e406                	sd	ra,8(sp)
    50202c3a:	e022                	sd	s0,0(sp)
    50202c3c:	0800                	addi	s0,sp,16
    50202c3e:	fdbff0ef          	jal	ra,50202c18 <get_ticks>
    50202c42:	872a                	mv	a4,a0
    50202c44:	83818793          	addi	a5,gp,-1992 # 502065b0 <time_base>
    50202c48:	439c                	lw	a5,0(a5)
    50202c4a:	1782                	slli	a5,a5,0x20
    50202c4c:	9381                	srli	a5,a5,0x20
    50202c4e:	02f757b3          	divu	a5,a4,a5
    50202c52:	853e                	mv	a0,a5
    50202c54:	60a2                	ld	ra,8(sp)
    50202c56:	6402                	ld	s0,0(sp)
    50202c58:	0141                	addi	sp,sp,16
    50202c5a:	8082                	ret

0000000050202c5c <get_time_base>:
    50202c5c:	1141                	addi	sp,sp,-16
    50202c5e:	e422                	sd	s0,8(sp)
    50202c60:	0800                	addi	s0,sp,16
    50202c62:	83818793          	addi	a5,gp,-1992 # 502065b0 <time_base>
    50202c66:	439c                	lw	a5,0(a5)
    50202c68:	1782                	slli	a5,a5,0x20
    50202c6a:	9381                	srli	a5,a5,0x20
    50202c6c:	853e                	mv	a0,a5
    50202c6e:	6422                	ld	s0,8(sp)
    50202c70:	0141                	addi	sp,sp,16
    50202c72:	8082                	ret

0000000050202c74 <latency>:
    50202c74:	7179                	addi	sp,sp,-48
    50202c76:	f406                	sd	ra,40(sp)
    50202c78:	f022                	sd	s0,32(sp)
    50202c7a:	1800                	addi	s0,sp,48
    50202c7c:	fca43c23          	sd	a0,-40(s0)
    50202c80:	fb7ff0ef          	jal	ra,50202c36 <get_timer>
    50202c84:	fea43423          	sd	a0,-24(s0)
    50202c88:	0001                	nop
    50202c8a:	fadff0ef          	jal	ra,50202c36 <get_timer>
    50202c8e:	872a                	mv	a4,a0
    50202c90:	fe843783          	ld	a5,-24(s0)
    50202c94:	40f707b3          	sub	a5,a4,a5
    50202c98:	fd843703          	ld	a4,-40(s0)
    50202c9c:	fee7e7e3          	bltu	a5,a4,50202c8a <latency+0x16>
    50202ca0:	0001                	nop
    50202ca2:	70a2                	ld	ra,40(sp)
    50202ca4:	7402                	ld	s0,32(sp)
    50202ca6:	6145                	addi	sp,sp,48
    50202ca8:	8082                	ret

0000000050202caa <get_time>:
    50202caa:	1101                	addi	sp,sp,-32
    50202cac:	ec06                	sd	ra,24(sp)
    50202cae:	e822                	sd	s0,16(sp)
    50202cb0:	1000                	addi	s0,sp,32
    50202cb2:	fea43423          	sd	a0,-24(s0)
    50202cb6:	f63ff0ef          	jal	ra,50202c18 <get_ticks>
    50202cba:	87aa                	mv	a5,a0
    50202cbc:	0007871b          	sext.w	a4,a5
    50202cc0:	fe843783          	ld	a5,-24(s0)
    50202cc4:	c398                	sw	a4,0(a5)
    50202cc6:	83818793          	addi	a5,gp,-1992 # 502065b0 <time_base>
    50202cca:	439c                	lw	a5,0(a5)
    50202ccc:	853e                	mv	a0,a5
    50202cce:	60e2                	ld	ra,24(sp)
    50202cd0:	6442                	ld	s0,16(sp)
    50202cd2:	6105                	addi	sp,sp,32
    50202cd4:	8082                	ret

0000000050202cd6 <allocPage>:
    50202cd6:	7179                	addi	sp,sp,-48
    50202cd8:	f422                	sd	s0,40(sp)
    50202cda:	1800                	addi	s0,sp,48
    50202cdc:	87aa                	mv	a5,a0
    50202cde:	fcf42e23          	sw	a5,-36(s0)
    50202ce2:	82018793          	addi	a5,gp,-2016 # 50206598 <memCurr>
    50202ce6:	6398                	ld	a4,0(a5)
    50202ce8:	6785                	lui	a5,0x1
    50202cea:	17fd                	addi	a5,a5,-1
    50202cec:	973e                	add	a4,a4,a5
    50202cee:	77fd                	lui	a5,0xfffff
    50202cf0:	8ff9                	and	a5,a5,a4
    50202cf2:	fef43423          	sd	a5,-24(s0)
    50202cf6:	fdc42783          	lw	a5,-36(s0)
    50202cfa:	00c7979b          	slliw	a5,a5,0xc
    50202cfe:	2781                	sext.w	a5,a5
    50202d00:	873e                	mv	a4,a5
    50202d02:	fe843783          	ld	a5,-24(s0)
    50202d06:	973e                	add	a4,a4,a5
    50202d08:	82018793          	addi	a5,gp,-2016 # 50206598 <memCurr>
    50202d0c:	e398                	sd	a4,0(a5)
    50202d0e:	fe843783          	ld	a5,-24(s0)
    50202d12:	853e                	mv	a0,a5
    50202d14:	7422                	ld	s0,40(sp)
    50202d16:	6145                	addi	sp,sp,48
    50202d18:	8082                	ret

0000000050202d1a <kmalloc>:
    50202d1a:	7179                	addi	sp,sp,-48
    50202d1c:	f422                	sd	s0,40(sp)
    50202d1e:	1800                	addi	s0,sp,48
    50202d20:	fca43c23          	sd	a0,-40(s0)
    50202d24:	82018793          	addi	a5,gp,-2016 # 50206598 <memCurr>
    50202d28:	639c                	ld	a5,0(a5)
    50202d2a:	078d                	addi	a5,a5,3
    50202d2c:	9bf1                	andi	a5,a5,-4
    50202d2e:	fef43423          	sd	a5,-24(s0)
    50202d32:	fe843703          	ld	a4,-24(s0)
    50202d36:	fd843783          	ld	a5,-40(s0)
    50202d3a:	973e                	add	a4,a4,a5
    50202d3c:	82018793          	addi	a5,gp,-2016 # 50206598 <memCurr>
    50202d40:	e398                	sd	a4,0(a5)
    50202d42:	fe843783          	ld	a5,-24(s0)
    50202d46:	853e                	mv	a0,a5
    50202d48:	7422                	ld	s0,40(sp)
    50202d4a:	6145                	addi	sp,sp,48
    50202d4c:	8082                	ret

0000000050202d4e <handle_syscall>:
    50202d4e:	7179                	addi	sp,sp,-48
    50202d50:	f406                	sd	ra,40(sp)
    50202d52:	f022                	sd	s0,32(sp)
    50202d54:	1800                	addi	s0,sp,48
    50202d56:	fea43423          	sd	a0,-24(s0)
    50202d5a:	feb43023          	sd	a1,-32(s0)
    50202d5e:	fcc43c23          	sd	a2,-40(s0)
    50202d62:	fe843783          	ld	a5,-24(s0)
    50202d66:	1087b783          	ld	a5,264(a5) # fffffffffffff108 <__BSS_END__+0xffffffffafdf6038>
    50202d6a:	00478713          	addi	a4,a5,4
    50202d6e:	fe843783          	ld	a5,-24(s0)
    50202d72:	10e7b423          	sd	a4,264(a5)
    50202d76:	fe843783          	ld	a5,-24(s0)
    50202d7a:	67dc                	ld	a5,136(a5)
    50202d7c:	00006717          	auipc	a4,0x6
    50202d80:	14470713          	addi	a4,a4,324 # 50208ec0 <syscall>
    50202d84:	078e                	slli	a5,a5,0x3
    50202d86:	97ba                	add	a5,a5,a4
    50202d88:	0007b803          	ld	a6,0(a5)
    50202d8c:	fe843783          	ld	a5,-24(s0)
    50202d90:	6bb8                	ld	a4,80(a5)
    50202d92:	fe843783          	ld	a5,-24(s0)
    50202d96:	6fb4                	ld	a3,88(a5)
    50202d98:	fe843783          	ld	a5,-24(s0)
    50202d9c:	73bc                	ld	a5,96(a5)
    50202d9e:	863e                	mv	a2,a5
    50202da0:	85b6                	mv	a1,a3
    50202da2:	853a                	mv	a0,a4
    50202da4:	9802                	jalr	a6
    50202da6:	87aa                	mv	a5,a0
    50202da8:	873e                	mv	a4,a5
    50202daa:	fe843783          	ld	a5,-24(s0)
    50202dae:	ebb8                	sd	a4,80(a5)
    50202db0:	0001                	nop
    50202db2:	70a2                	ld	ra,40(sp)
    50202db4:	7402                	ld	s0,32(sp)
    50202db6:	6145                	addi	sp,sp,48
    50202db8:	8082                	ret

0000000050202dba <kstrlen>:
    50202dba:	7179                	addi	sp,sp,-48
    50202dbc:	f422                	sd	s0,40(sp)
    50202dbe:	1800                	addi	s0,sp,48
    50202dc0:	fca43c23          	sd	a0,-40(s0)
    50202dc4:	fe042623          	sw	zero,-20(s0)
    50202dc8:	a031                	j	50202dd4 <kstrlen+0x1a>
    50202dca:	fec42783          	lw	a5,-20(s0)
    50202dce:	2785                	addiw	a5,a5,1
    50202dd0:	fef42623          	sw	a5,-20(s0)
    50202dd4:	fec42783          	lw	a5,-20(s0)
    50202dd8:	fd843703          	ld	a4,-40(s0)
    50202ddc:	97ba                	add	a5,a5,a4
    50202dde:	0007c783          	lbu	a5,0(a5)
    50202de2:	f7e5                	bnez	a5,50202dca <kstrlen+0x10>
    50202de4:	fec42783          	lw	a5,-20(s0)
    50202de8:	853e                	mv	a0,a5
    50202dea:	7422                	ld	s0,40(sp)
    50202dec:	6145                	addi	sp,sp,48
    50202dee:	8082                	ret

0000000050202df0 <kmemcpy>:
    50202df0:	7179                	addi	sp,sp,-48
    50202df2:	f422                	sd	s0,40(sp)
    50202df4:	1800                	addi	s0,sp,48
    50202df6:	fea43423          	sd	a0,-24(s0)
    50202dfa:	feb43023          	sd	a1,-32(s0)
    50202dfe:	87b2                	mv	a5,a2
    50202e00:	fcf42e23          	sw	a5,-36(s0)
    50202e04:	a035                	j	50202e30 <kmemcpy+0x40>
    50202e06:	fe043703          	ld	a4,-32(s0)
    50202e0a:	00170793          	addi	a5,a4,1
    50202e0e:	fef43023          	sd	a5,-32(s0)
    50202e12:	fe843783          	ld	a5,-24(s0)
    50202e16:	00178693          	addi	a3,a5,1
    50202e1a:	fed43423          	sd	a3,-24(s0)
    50202e1e:	00074703          	lbu	a4,0(a4)
    50202e22:	00e78023          	sb	a4,0(a5)
    50202e26:	fdc42783          	lw	a5,-36(s0)
    50202e2a:	37fd                	addiw	a5,a5,-1
    50202e2c:	fcf42e23          	sw	a5,-36(s0)
    50202e30:	fdc42783          	lw	a5,-36(s0)
    50202e34:	2781                	sext.w	a5,a5
    50202e36:	fbe1                	bnez	a5,50202e06 <kmemcpy+0x16>
    50202e38:	0001                	nop
    50202e3a:	0001                	nop
    50202e3c:	7422                	ld	s0,40(sp)
    50202e3e:	6145                	addi	sp,sp,48
    50202e40:	8082                	ret

0000000050202e42 <kmemset>:
    50202e42:	7179                	addi	sp,sp,-48
    50202e44:	f422                	sd	s0,40(sp)
    50202e46:	1800                	addi	s0,sp,48
    50202e48:	fca43c23          	sd	a0,-40(s0)
    50202e4c:	87ae                	mv	a5,a1
    50202e4e:	8732                	mv	a4,a2
    50202e50:	fcf40ba3          	sb	a5,-41(s0)
    50202e54:	87ba                	mv	a5,a4
    50202e56:	fcf42823          	sw	a5,-48(s0)
    50202e5a:	fd843783          	ld	a5,-40(s0)
    50202e5e:	fef43423          	sd	a5,-24(s0)
    50202e62:	a005                	j	50202e82 <kmemset+0x40>
    50202e64:	fe843783          	ld	a5,-24(s0)
    50202e68:	00178713          	addi	a4,a5,1
    50202e6c:	fee43423          	sd	a4,-24(s0)
    50202e70:	fd744703          	lbu	a4,-41(s0)
    50202e74:	00e78023          	sb	a4,0(a5)
    50202e78:	fd042783          	lw	a5,-48(s0)
    50202e7c:	37fd                	addiw	a5,a5,-1
    50202e7e:	fcf42823          	sw	a5,-48(s0)
    50202e82:	fd042783          	lw	a5,-48(s0)
    50202e86:	2781                	sext.w	a5,a5
    50202e88:	fff1                	bnez	a5,50202e64 <kmemset+0x22>
    50202e8a:	0001                	nop
    50202e8c:	0001                	nop
    50202e8e:	7422                	ld	s0,40(sp)
    50202e90:	6145                	addi	sp,sp,48
    50202e92:	8082                	ret

0000000050202e94 <kbzero>:
    50202e94:	1101                	addi	sp,sp,-32
    50202e96:	ec06                	sd	ra,24(sp)
    50202e98:	e822                	sd	s0,16(sp)
    50202e9a:	1000                	addi	s0,sp,32
    50202e9c:	fea43423          	sd	a0,-24(s0)
    50202ea0:	87ae                	mv	a5,a1
    50202ea2:	fef42223          	sw	a5,-28(s0)
    50202ea6:	fe442783          	lw	a5,-28(s0)
    50202eaa:	863e                	mv	a2,a5
    50202eac:	4581                	li	a1,0
    50202eae:	fe843503          	ld	a0,-24(s0)
    50202eb2:	f91ff0ef          	jal	ra,50202e42 <kmemset>
    50202eb6:	0001                	nop
    50202eb8:	60e2                	ld	ra,24(sp)
    50202eba:	6442                	ld	s0,16(sp)
    50202ebc:	6105                	addi	sp,sp,32
    50202ebe:	8082                	ret

0000000050202ec0 <kstrcmp>:
    50202ec0:	1101                	addi	sp,sp,-32
    50202ec2:	ec22                	sd	s0,24(sp)
    50202ec4:	1000                	addi	s0,sp,32
    50202ec6:	fea43423          	sd	a0,-24(s0)
    50202eca:	feb43023          	sd	a1,-32(s0)
    50202ece:	a0a1                	j	50202f16 <kstrcmp+0x56>
    50202ed0:	fe843783          	ld	a5,-24(s0)
    50202ed4:	0007c703          	lbu	a4,0(a5)
    50202ed8:	fe043783          	ld	a5,-32(s0)
    50202edc:	0007c783          	lbu	a5,0(a5)
    50202ee0:	02f70163          	beq	a4,a5,50202f02 <kstrcmp+0x42>
    50202ee4:	fe843783          	ld	a5,-24(s0)
    50202ee8:	0007c783          	lbu	a5,0(a5)
    50202eec:	0007871b          	sext.w	a4,a5
    50202ef0:	fe043783          	ld	a5,-32(s0)
    50202ef4:	0007c783          	lbu	a5,0(a5)
    50202ef8:	2781                	sext.w	a5,a5
    50202efa:	40f707bb          	subw	a5,a4,a5
    50202efe:	2781                	sext.w	a5,a5
    50202f00:	a099                	j	50202f46 <kstrcmp+0x86>
    50202f02:	fe843783          	ld	a5,-24(s0)
    50202f06:	0785                	addi	a5,a5,1
    50202f08:	fef43423          	sd	a5,-24(s0)
    50202f0c:	fe043783          	ld	a5,-32(s0)
    50202f10:	0785                	addi	a5,a5,1
    50202f12:	fef43023          	sd	a5,-32(s0)
    50202f16:	fe843783          	ld	a5,-24(s0)
    50202f1a:	0007c783          	lbu	a5,0(a5)
    50202f1e:	c791                	beqz	a5,50202f2a <kstrcmp+0x6a>
    50202f20:	fe043783          	ld	a5,-32(s0)
    50202f24:	0007c783          	lbu	a5,0(a5)
    50202f28:	f7c5                	bnez	a5,50202ed0 <kstrcmp+0x10>
    50202f2a:	fe843783          	ld	a5,-24(s0)
    50202f2e:	0007c783          	lbu	a5,0(a5)
    50202f32:	0007871b          	sext.w	a4,a5
    50202f36:	fe043783          	ld	a5,-32(s0)
    50202f3a:	0007c783          	lbu	a5,0(a5)
    50202f3e:	2781                	sext.w	a5,a5
    50202f40:	40f707bb          	subw	a5,a4,a5
    50202f44:	2781                	sext.w	a5,a5
    50202f46:	853e                	mv	a0,a5
    50202f48:	6462                	ld	s0,24(sp)
    50202f4a:	6105                	addi	sp,sp,32
    50202f4c:	8082                	ret

0000000050202f4e <kstrcpy>:
    50202f4e:	7179                	addi	sp,sp,-48
    50202f50:	f422                	sd	s0,40(sp)
    50202f52:	1800                	addi	s0,sp,48
    50202f54:	fca43c23          	sd	a0,-40(s0)
    50202f58:	fcb43823          	sd	a1,-48(s0)
    50202f5c:	fd843783          	ld	a5,-40(s0)
    50202f60:	fef43423          	sd	a5,-24(s0)
    50202f64:	a00d                	j	50202f86 <kstrcpy+0x38>
    50202f66:	fd043703          	ld	a4,-48(s0)
    50202f6a:	00170793          	addi	a5,a4,1
    50202f6e:	fcf43823          	sd	a5,-48(s0)
    50202f72:	fd843783          	ld	a5,-40(s0)
    50202f76:	00178693          	addi	a3,a5,1
    50202f7a:	fcd43c23          	sd	a3,-40(s0)
    50202f7e:	00074703          	lbu	a4,0(a4)
    50202f82:	00e78023          	sb	a4,0(a5)
    50202f86:	fd043783          	ld	a5,-48(s0)
    50202f8a:	0007c783          	lbu	a5,0(a5)
    50202f8e:	ffe1                	bnez	a5,50202f66 <kstrcpy+0x18>
    50202f90:	fd843783          	ld	a5,-40(s0)
    50202f94:	00078023          	sb	zero,0(a5)
    50202f98:	fe843783          	ld	a5,-24(s0)
    50202f9c:	853e                	mv	a0,a5
    50202f9e:	7422                	ld	s0,40(sp)
    50202fa0:	6145                	addi	sp,sp,48
    50202fa2:	8082                	ret

0000000050202fa4 <kstrcat>:
    50202fa4:	7179                	addi	sp,sp,-48
    50202fa6:	f422                	sd	s0,40(sp)
    50202fa8:	1800                	addi	s0,sp,48
    50202faa:	fca43c23          	sd	a0,-40(s0)
    50202fae:	fcb43823          	sd	a1,-48(s0)
    50202fb2:	fd843783          	ld	a5,-40(s0)
    50202fb6:	fef43423          	sd	a5,-24(s0)
    50202fba:	a031                	j	50202fc6 <kstrcat+0x22>
    50202fbc:	fd843783          	ld	a5,-40(s0)
    50202fc0:	0785                	addi	a5,a5,1
    50202fc2:	fcf43c23          	sd	a5,-40(s0)
    50202fc6:	fd843783          	ld	a5,-40(s0)
    50202fca:	0007c783          	lbu	a5,0(a5)
    50202fce:	f7fd                	bnez	a5,50202fbc <kstrcat+0x18>
    50202fd0:	a00d                	j	50202ff2 <kstrcat+0x4e>
    50202fd2:	fd043703          	ld	a4,-48(s0)
    50202fd6:	00170793          	addi	a5,a4,1
    50202fda:	fcf43823          	sd	a5,-48(s0)
    50202fde:	fd843783          	ld	a5,-40(s0)
    50202fe2:	00178693          	addi	a3,a5,1
    50202fe6:	fcd43c23          	sd	a3,-40(s0)
    50202fea:	00074703          	lbu	a4,0(a4)
    50202fee:	00e78023          	sb	a4,0(a5)
    50202ff2:	fd043783          	ld	a5,-48(s0)
    50202ff6:	0007c783          	lbu	a5,0(a5)
    50202ffa:	ffe1                	bnez	a5,50202fd2 <kstrcat+0x2e>
    50202ffc:	fd843783          	ld	a5,-40(s0)
    50203000:	00078023          	sb	zero,0(a5)
    50203004:	fe843783          	ld	a5,-24(s0)
    50203008:	853e                	mv	a0,a5
    5020300a:	7422                	ld	s0,40(sp)
    5020300c:	6145                	addi	sp,sp,48
    5020300e:	8082                	ret

0000000050203010 <mini_strlen>:
    50203010:	7179                	addi	sp,sp,-48
    50203012:	f422                	sd	s0,40(sp)
    50203014:	1800                	addi	s0,sp,48
    50203016:	fca43c23          	sd	a0,-40(s0)
    5020301a:	fe042623          	sw	zero,-20(s0)
    5020301e:	a031                	j	5020302a <mini_strlen+0x1a>
    50203020:	fec42783          	lw	a5,-20(s0)
    50203024:	2785                	addiw	a5,a5,1
    50203026:	fef42623          	sw	a5,-20(s0)
    5020302a:	fec46783          	lwu	a5,-20(s0)
    5020302e:	fd843703          	ld	a4,-40(s0)
    50203032:	97ba                	add	a5,a5,a4
    50203034:	0007c783          	lbu	a5,0(a5)
    50203038:	f7e5                	bnez	a5,50203020 <mini_strlen+0x10>
    5020303a:	fec42783          	lw	a5,-20(s0)
    5020303e:	853e                	mv	a0,a5
    50203040:	7422                	ld	s0,40(sp)
    50203042:	6145                	addi	sp,sp,48
    50203044:	8082                	ret

0000000050203046 <mini_itoa>:
    50203046:	715d                	addi	sp,sp,-80
    50203048:	e4a2                	sd	s0,72(sp)
    5020304a:	0880                	addi	s0,sp,80
    5020304c:	fca43423          	sd	a0,-56(s0)
    50203050:	fae43823          	sd	a4,-80(s0)
    50203054:	873e                	mv	a4,a5
    50203056:	87ae                	mv	a5,a1
    50203058:	fcf42223          	sw	a5,-60(s0)
    5020305c:	87b2                	mv	a5,a2
    5020305e:	fcf42023          	sw	a5,-64(s0)
    50203062:	87b6                	mv	a5,a3
    50203064:	faf42e23          	sw	a5,-68(s0)
    50203068:	87ba                	mv	a5,a4
    5020306a:	faf42c23          	sw	a5,-72(s0)
    5020306e:	fb043783          	ld	a5,-80(s0)
    50203072:	fef43423          	sd	a5,-24(s0)
    50203076:	fe042223          	sw	zero,-28(s0)
    5020307a:	fc442783          	lw	a5,-60(s0)
    5020307e:	0007871b          	sext.w	a4,a5
    50203082:	47c1                	li	a5,16
    50203084:	00e7f463          	bgeu	a5,a4,5020308c <mini_itoa+0x46>
    50203088:	4781                	li	a5,0
    5020308a:	a255                	j	5020322e <mini_itoa+0x1e8>
    5020308c:	fc843783          	ld	a5,-56(s0)
    50203090:	0007df63          	bgez	a5,502030ae <mini_itoa+0x68>
    50203094:	fbc42783          	lw	a5,-68(s0)
    50203098:	2781                	sext.w	a5,a5
    5020309a:	eb91                	bnez	a5,502030ae <mini_itoa+0x68>
    5020309c:	4785                	li	a5,1
    5020309e:	fef42223          	sw	a5,-28(s0)
    502030a2:	fc843783          	ld	a5,-56(s0)
    502030a6:	40f007b3          	neg	a5,a5
    502030aa:	fcf43423          	sd	a5,-56(s0)
    502030ae:	fc446783          	lwu	a5,-60(s0)
    502030b2:	fc843703          	ld	a4,-56(s0)
    502030b6:	02f767b3          	rem	a5,a4,a5
    502030ba:	fcf42e23          	sw	a5,-36(s0)
    502030be:	fdc42783          	lw	a5,-36(s0)
    502030c2:	0007871b          	sext.w	a4,a5
    502030c6:	47a5                	li	a5,9
    502030c8:	00e7cb63          	blt	a5,a4,502030de <mini_itoa+0x98>
    502030cc:	fdc42783          	lw	a5,-36(s0)
    502030d0:	0ff7f793          	andi	a5,a5,255
    502030d4:	0307879b          	addiw	a5,a5,48
    502030d8:	0ff7f713          	andi	a4,a5,255
    502030dc:	a025                	j	50203104 <mini_itoa+0xbe>
    502030de:	fc042783          	lw	a5,-64(s0)
    502030e2:	2781                	sext.w	a5,a5
    502030e4:	c781                	beqz	a5,502030ec <mini_itoa+0xa6>
    502030e6:	04100793          	li	a5,65
    502030ea:	a019                	j	502030f0 <mini_itoa+0xaa>
    502030ec:	06100793          	li	a5,97
    502030f0:	fdc42703          	lw	a4,-36(s0)
    502030f4:	0ff77713          	andi	a4,a4,255
    502030f8:	9fb9                	addw	a5,a5,a4
    502030fa:	0ff7f793          	andi	a5,a5,255
    502030fe:	37d9                	addiw	a5,a5,-10
    50203100:	0ff7f713          	andi	a4,a5,255
    50203104:	fe843783          	ld	a5,-24(s0)
    50203108:	00178693          	addi	a3,a5,1
    5020310c:	fed43423          	sd	a3,-24(s0)
    50203110:	00e78023          	sb	a4,0(a5)
    50203114:	fc446783          	lwu	a5,-60(s0)
    50203118:	fc843703          	ld	a4,-56(s0)
    5020311c:	02f747b3          	div	a5,a4,a5
    50203120:	fcf43423          	sd	a5,-56(s0)
    50203124:	fc843783          	ld	a5,-56(s0)
    50203128:	f8f043e3          	bgtz	a5,502030ae <mini_itoa+0x68>
    5020312c:	fe843703          	ld	a4,-24(s0)
    50203130:	fb043783          	ld	a5,-80(s0)
    50203134:	40f707b3          	sub	a5,a4,a5
    50203138:	fef42023          	sw	a5,-32(s0)
    5020313c:	a005                	j	5020315c <mini_itoa+0x116>
    5020313e:	fe843783          	ld	a5,-24(s0)
    50203142:	00178713          	addi	a4,a5,1
    50203146:	fee43423          	sd	a4,-24(s0)
    5020314a:	03000713          	li	a4,48
    5020314e:	00e78023          	sb	a4,0(a5)
    50203152:	fe042783          	lw	a5,-32(s0)
    50203156:	2785                	addiw	a5,a5,1
    50203158:	fef42023          	sw	a5,-32(s0)
    5020315c:	fe042703          	lw	a4,-32(s0)
    50203160:	fb842783          	lw	a5,-72(s0)
    50203164:	2701                	sext.w	a4,a4
    50203166:	2781                	sext.w	a5,a5
    50203168:	fcf76be3          	bltu	a4,a5,5020313e <mini_itoa+0xf8>
    5020316c:	fe442783          	lw	a5,-28(s0)
    50203170:	2781                	sext.w	a5,a5
    50203172:	cb99                	beqz	a5,50203188 <mini_itoa+0x142>
    50203174:	fe843783          	ld	a5,-24(s0)
    50203178:	00178713          	addi	a4,a5,1
    5020317c:	fee43423          	sd	a4,-24(s0)
    50203180:	02d00713          	li	a4,45
    50203184:	00e78023          	sb	a4,0(a5)
    50203188:	fe843783          	ld	a5,-24(s0)
    5020318c:	00078023          	sb	zero,0(a5)
    50203190:	fe843703          	ld	a4,-24(s0)
    50203194:	fb043783          	ld	a5,-80(s0)
    50203198:	40f707b3          	sub	a5,a4,a5
    5020319c:	fcf42c23          	sw	a5,-40(s0)
    502031a0:	fe042023          	sw	zero,-32(s0)
    502031a4:	a885                	j	50203214 <mini_itoa+0x1ce>
    502031a6:	fe046783          	lwu	a5,-32(s0)
    502031aa:	fb043703          	ld	a4,-80(s0)
    502031ae:	97ba                	add	a5,a5,a4
    502031b0:	0007c783          	lbu	a5,0(a5)
    502031b4:	fcf40ba3          	sb	a5,-41(s0)
    502031b8:	fd842703          	lw	a4,-40(s0)
    502031bc:	fe042783          	lw	a5,-32(s0)
    502031c0:	40f707bb          	subw	a5,a4,a5
    502031c4:	2781                	sext.w	a5,a5
    502031c6:	37fd                	addiw	a5,a5,-1
    502031c8:	2781                	sext.w	a5,a5
    502031ca:	1782                	slli	a5,a5,0x20
    502031cc:	9381                	srli	a5,a5,0x20
    502031ce:	fb043703          	ld	a4,-80(s0)
    502031d2:	973e                	add	a4,a4,a5
    502031d4:	fe046783          	lwu	a5,-32(s0)
    502031d8:	fb043683          	ld	a3,-80(s0)
    502031dc:	97b6                	add	a5,a5,a3
    502031de:	00074703          	lbu	a4,0(a4)
    502031e2:	00e78023          	sb	a4,0(a5)
    502031e6:	fd842703          	lw	a4,-40(s0)
    502031ea:	fe042783          	lw	a5,-32(s0)
    502031ee:	40f707bb          	subw	a5,a4,a5
    502031f2:	2781                	sext.w	a5,a5
    502031f4:	37fd                	addiw	a5,a5,-1
    502031f6:	2781                	sext.w	a5,a5
    502031f8:	1782                	slli	a5,a5,0x20
    502031fa:	9381                	srli	a5,a5,0x20
    502031fc:	fb043703          	ld	a4,-80(s0)
    50203200:	97ba                	add	a5,a5,a4
    50203202:	fd744703          	lbu	a4,-41(s0)
    50203206:	00e78023          	sb	a4,0(a5)
    5020320a:	fe042783          	lw	a5,-32(s0)
    5020320e:	2785                	addiw	a5,a5,1
    50203210:	fef42023          	sw	a5,-32(s0)
    50203214:	fd842783          	lw	a5,-40(s0)
    50203218:	0017d79b          	srliw	a5,a5,0x1
    5020321c:	0007871b          	sext.w	a4,a5
    50203220:	fe042783          	lw	a5,-32(s0)
    50203224:	2781                	sext.w	a5,a5
    50203226:	f8e7e0e3          	bltu	a5,a4,502031a6 <mini_itoa+0x160>
    5020322a:	fd842783          	lw	a5,-40(s0)
    5020322e:	853e                	mv	a0,a5
    50203230:	6426                	ld	s0,72(sp)
    50203232:	6161                	addi	sp,sp,80
    50203234:	8082                	ret

0000000050203236 <_putc>:
    50203236:	1101                	addi	sp,sp,-32
    50203238:	ec22                	sd	s0,24(sp)
    5020323a:	1000                	addi	s0,sp,32
    5020323c:	87aa                	mv	a5,a0
    5020323e:	feb43023          	sd	a1,-32(s0)
    50203242:	fef42623          	sw	a5,-20(s0)
    50203246:	fe043783          	ld	a5,-32(s0)
    5020324a:	6798                	ld	a4,8(a5)
    5020324c:	fe043783          	ld	a5,-32(s0)
    50203250:	639c                	ld	a5,0(a5)
    50203252:	40f707b3          	sub	a5,a4,a5
    50203256:	2781                	sext.w	a5,a5
    50203258:	2785                	addiw	a5,a5,1
    5020325a:	0007871b          	sext.w	a4,a5
    5020325e:	fe043783          	ld	a5,-32(s0)
    50203262:	4b9c                	lw	a5,16(a5)
    50203264:	00f76463          	bltu	a4,a5,5020326c <_putc+0x36>
    50203268:	4781                	li	a5,0
    5020326a:	a02d                	j	50203294 <_putc+0x5e>
    5020326c:	fe043783          	ld	a5,-32(s0)
    50203270:	679c                	ld	a5,8(a5)
    50203272:	00178693          	addi	a3,a5,1
    50203276:	fe043703          	ld	a4,-32(s0)
    5020327a:	e714                	sd	a3,8(a4)
    5020327c:	fec42703          	lw	a4,-20(s0)
    50203280:	0ff77713          	andi	a4,a4,255
    50203284:	00e78023          	sb	a4,0(a5)
    50203288:	fe043783          	ld	a5,-32(s0)
    5020328c:	679c                	ld	a5,8(a5)
    5020328e:	00078023          	sb	zero,0(a5)
    50203292:	4785                	li	a5,1
    50203294:	853e                	mv	a0,a5
    50203296:	6462                	ld	s0,24(sp)
    50203298:	6105                	addi	sp,sp,32
    5020329a:	8082                	ret

000000005020329c <_puts>:
    5020329c:	7139                	addi	sp,sp,-64
    5020329e:	fc22                	sd	s0,56(sp)
    502032a0:	0080                	addi	s0,sp,64
    502032a2:	fca43c23          	sd	a0,-40(s0)
    502032a6:	87ae                	mv	a5,a1
    502032a8:	fcc43423          	sd	a2,-56(s0)
    502032ac:	fcf42a23          	sw	a5,-44(s0)
    502032b0:	fc843783          	ld	a5,-56(s0)
    502032b4:	4b9c                	lw	a5,16(a5)
    502032b6:	02079713          	slli	a4,a5,0x20
    502032ba:	9301                	srli	a4,a4,0x20
    502032bc:	fc843783          	ld	a5,-56(s0)
    502032c0:	6794                	ld	a3,8(a5)
    502032c2:	fc843783          	ld	a5,-56(s0)
    502032c6:	639c                	ld	a5,0(a5)
    502032c8:	40f687b3          	sub	a5,a3,a5
    502032cc:	8f1d                	sub	a4,a4,a5
    502032ce:	fd446783          	lwu	a5,-44(s0)
    502032d2:	02e7c463          	blt	a5,a4,502032fa <_puts+0x5e>
    502032d6:	fc843783          	ld	a5,-56(s0)
    502032da:	4b98                	lw	a4,16(a5)
    502032dc:	fc843783          	ld	a5,-56(s0)
    502032e0:	6794                	ld	a3,8(a5)
    502032e2:	fc843783          	ld	a5,-56(s0)
    502032e6:	639c                	ld	a5,0(a5)
    502032e8:	40f687b3          	sub	a5,a3,a5
    502032ec:	2781                	sext.w	a5,a5
    502032ee:	40f707bb          	subw	a5,a4,a5
    502032f2:	2781                	sext.w	a5,a5
    502032f4:	37fd                	addiw	a5,a5,-1
    502032f6:	fcf42a23          	sw	a5,-44(s0)
    502032fa:	fe042623          	sw	zero,-20(s0)
    502032fe:	a03d                	j	5020332c <_puts+0x90>
    50203300:	fec46783          	lwu	a5,-20(s0)
    50203304:	fd843703          	ld	a4,-40(s0)
    50203308:	973e                	add	a4,a4,a5
    5020330a:	fc843783          	ld	a5,-56(s0)
    5020330e:	679c                	ld	a5,8(a5)
    50203310:	00178613          	addi	a2,a5,1
    50203314:	fc843683          	ld	a3,-56(s0)
    50203318:	e690                	sd	a2,8(a3)
    5020331a:	00074703          	lbu	a4,0(a4)
    5020331e:	00e78023          	sb	a4,0(a5)
    50203322:	fec42783          	lw	a5,-20(s0)
    50203326:	2785                	addiw	a5,a5,1
    50203328:	fef42623          	sw	a5,-20(s0)
    5020332c:	fec42703          	lw	a4,-20(s0)
    50203330:	fd442783          	lw	a5,-44(s0)
    50203334:	2701                	sext.w	a4,a4
    50203336:	2781                	sext.w	a5,a5
    50203338:	fcf764e3          	bltu	a4,a5,50203300 <_puts+0x64>
    5020333c:	fc843783          	ld	a5,-56(s0)
    50203340:	679c                	ld	a5,8(a5)
    50203342:	00078023          	sb	zero,0(a5)
    50203346:	fd442783          	lw	a5,-44(s0)
    5020334a:	853e                	mv	a0,a5
    5020334c:	7462                	ld	s0,56(sp)
    5020334e:	6121                	addi	sp,sp,64
    50203350:	8082                	ret

0000000050203352 <mini_vsnprintf>:
    50203352:	7119                	addi	sp,sp,-128
    50203354:	fc86                	sd	ra,120(sp)
    50203356:	f8a2                	sd	s0,112(sp)
    50203358:	0100                	addi	s0,sp,128
    5020335a:	f8a43c23          	sd	a0,-104(s0)
    5020335e:	87ae                	mv	a5,a1
    50203360:	f8c43423          	sd	a2,-120(s0)
    50203364:	f8d43023          	sd	a3,-128(s0)
    50203368:	f8f42a23          	sw	a5,-108(s0)
    5020336c:	f9843783          	ld	a5,-104(s0)
    50203370:	fcf43023          	sd	a5,-64(s0)
    50203374:	f9843783          	ld	a5,-104(s0)
    50203378:	fcf43423          	sd	a5,-56(s0)
    5020337c:	f9442783          	lw	a5,-108(s0)
    50203380:	fcf42823          	sw	a5,-48(s0)
    50203384:	a4f9                	j	50203652 <mini_vsnprintf+0x300>
    50203386:	fc843703          	ld	a4,-56(s0)
    5020338a:	fc043783          	ld	a5,-64(s0)
    5020338e:	40f707b3          	sub	a5,a4,a5
    50203392:	2781                	sext.w	a5,a5
    50203394:	2785                	addiw	a5,a5,1
    50203396:	0007871b          	sext.w	a4,a5
    5020339a:	fd042783          	lw	a5,-48(s0)
    5020339e:	2cf77b63          	bgeu	a4,a5,50203674 <mini_vsnprintf+0x322>
    502033a2:	fef44783          	lbu	a5,-17(s0)
    502033a6:	0ff7f713          	andi	a4,a5,255
    502033aa:	02500793          	li	a5,37
    502033ae:	00f70c63          	beq	a4,a5,502033c6 <mini_vsnprintf+0x74>
    502033b2:	fef44783          	lbu	a5,-17(s0)
    502033b6:	2781                	sext.w	a5,a5
    502033b8:	fc040713          	addi	a4,s0,-64
    502033bc:	85ba                	mv	a1,a4
    502033be:	853e                	mv	a0,a5
    502033c0:	e77ff0ef          	jal	ra,50203236 <_putc>
    502033c4:	a479                	j	50203652 <mini_vsnprintf+0x300>
    502033c6:	fe040723          	sb	zero,-18(s0)
    502033ca:	fe042423          	sw	zero,-24(s0)
    502033ce:	f8843783          	ld	a5,-120(s0)
    502033d2:	00178713          	addi	a4,a5,1
    502033d6:	f8e43423          	sd	a4,-120(s0)
    502033da:	0007c783          	lbu	a5,0(a5)
    502033de:	fef407a3          	sb	a5,-17(s0)
    502033e2:	fef44783          	lbu	a5,-17(s0)
    502033e6:	0ff7f713          	andi	a4,a5,255
    502033ea:	03000793          	li	a5,48
    502033ee:	06f71b63          	bne	a4,a5,50203464 <mini_vsnprintf+0x112>
    502033f2:	a891                	j	50203446 <mini_vsnprintf+0xf4>
    502033f4:	fef44783          	lbu	a5,-17(s0)
    502033f8:	0ff7f793          	andi	a5,a5,255
    502033fc:	26078e63          	beqz	a5,50203678 <mini_vsnprintf+0x326>
    50203400:	fef44783          	lbu	a5,-17(s0)
    50203404:	0ff7f713          	andi	a4,a5,255
    50203408:	02f00793          	li	a5,47
    5020340c:	04e7fc63          	bgeu	a5,a4,50203464 <mini_vsnprintf+0x112>
    50203410:	fef44783          	lbu	a5,-17(s0)
    50203414:	0ff7f713          	andi	a4,a5,255
    50203418:	03900793          	li	a5,57
    5020341c:	04e7e463          	bltu	a5,a4,50203464 <mini_vsnprintf+0x112>
    50203420:	fee44703          	lbu	a4,-18(s0)
    50203424:	87ba                	mv	a5,a4
    50203426:	0027979b          	slliw	a5,a5,0x2
    5020342a:	9fb9                	addw	a5,a5,a4
    5020342c:	0017979b          	slliw	a5,a5,0x1
    50203430:	0ff7f793          	andi	a5,a5,255
    50203434:	fef44703          	lbu	a4,-17(s0)
    50203438:	9fb9                	addw	a5,a5,a4
    5020343a:	0ff7f793          	andi	a5,a5,255
    5020343e:	fd07879b          	addiw	a5,a5,-48
    50203442:	fef40723          	sb	a5,-18(s0)
    50203446:	f8843783          	ld	a5,-120(s0)
    5020344a:	00178713          	addi	a4,a5,1
    5020344e:	f8e43423          	sd	a4,-120(s0)
    50203452:	0007c783          	lbu	a5,0(a5)
    50203456:	fef407a3          	sb	a5,-17(s0)
    5020345a:	fef44783          	lbu	a5,-17(s0)
    5020345e:	0ff7f793          	andi	a5,a5,255
    50203462:	fbc9                	bnez	a5,502033f4 <mini_vsnprintf+0xa2>
    50203464:	fef44783          	lbu	a5,-17(s0)
    50203468:	0ff7f713          	andi	a4,a5,255
    5020346c:	06c00793          	li	a5,108
    50203470:	00f71f63          	bne	a4,a5,5020348e <mini_vsnprintf+0x13c>
    50203474:	4785                	li	a5,1
    50203476:	fef42423          	sw	a5,-24(s0)
    5020347a:	f8843783          	ld	a5,-120(s0)
    5020347e:	00178713          	addi	a4,a5,1
    50203482:	f8e43423          	sd	a4,-120(s0)
    50203486:	0007c783          	lbu	a5,0(a5)
    5020348a:	fef407a3          	sb	a5,-17(s0)
    5020348e:	fef44783          	lbu	a5,-17(s0)
    50203492:	2781                	sext.w	a5,a5
    50203494:	1e078463          	beqz	a5,5020367c <mini_vsnprintf+0x32a>
    50203498:	873e                	mv	a4,a5
    5020349a:	1a074263          	bltz	a4,5020363e <mini_vsnprintf+0x2ec>
    5020349e:	86be                	mv	a3,a5
    502034a0:	07800713          	li	a4,120
    502034a4:	18d74d63          	blt	a4,a3,5020363e <mini_vsnprintf+0x2ec>
    502034a8:	86be                	mv	a3,a5
    502034aa:	05800713          	li	a4,88
    502034ae:	18e6c863          	blt	a3,a4,5020363e <mini_vsnprintf+0x2ec>
    502034b2:	fa87869b          	addiw	a3,a5,-88
    502034b6:	0006871b          	sext.w	a4,a3
    502034ba:	02000793          	li	a5,32
    502034be:	18e7e063          	bltu	a5,a4,5020363e <mini_vsnprintf+0x2ec>
    502034c2:	02069793          	slli	a5,a3,0x20
    502034c6:	9381                	srli	a5,a5,0x20
    502034c8:	00279713          	slli	a4,a5,0x2
    502034cc:	00003797          	auipc	a5,0x3
    502034d0:	89878793          	addi	a5,a5,-1896 # 50205d64 <__FUNCTION__.1433+0x7c>
    502034d4:	97ba                	add	a5,a5,a4
    502034d6:	439c                	lw	a5,0(a5)
    502034d8:	0007871b          	sext.w	a4,a5
    502034dc:	00003797          	auipc	a5,0x3
    502034e0:	88878793          	addi	a5,a5,-1912 # 50205d64 <__FUNCTION__.1433+0x7c>
    502034e4:	97ba                	add	a5,a5,a4
    502034e6:	8782                	jr	a5
    502034e8:	4785                	li	a5,1
    502034ea:	fef42423          	sw	a5,-24(s0)
    502034ee:	a295                	j	50203652 <mini_vsnprintf+0x300>
    502034f0:	fe842783          	lw	a5,-24(s0)
    502034f4:	2781                	sext.w	a5,a5
    502034f6:	ef81                	bnez	a5,5020350e <mini_vsnprintf+0x1bc>
    502034f8:	f8043783          	ld	a5,-128(s0)
    502034fc:	00878713          	addi	a4,a5,8
    50203500:	f8e43023          	sd	a4,-128(s0)
    50203504:	439c                	lw	a5,0(a5)
    50203506:	02079513          	slli	a0,a5,0x20
    5020350a:	9101                	srli	a0,a0,0x20
    5020350c:	a809                	j	5020351e <mini_vsnprintf+0x1cc>
    5020350e:	f8043783          	ld	a5,-128(s0)
    50203512:	00878713          	addi	a4,a5,8
    50203516:	f8e43023          	sd	a4,-128(s0)
    5020351a:	639c                	ld	a5,0(a5)
    5020351c:	853e                	mv	a0,a5
    5020351e:	fef44783          	lbu	a5,-17(s0)
    50203522:	0007871b          	sext.w	a4,a5
    50203526:	07500793          	li	a5,117
    5020352a:	40f707b3          	sub	a5,a4,a5
    5020352e:	0017b793          	seqz	a5,a5
    50203532:	0ff7f793          	andi	a5,a5,255
    50203536:	0007869b          	sext.w	a3,a5
    5020353a:	fee44783          	lbu	a5,-18(s0)
    5020353e:	2781                	sext.w	a5,a5
    50203540:	fa840713          	addi	a4,s0,-88
    50203544:	4601                	li	a2,0
    50203546:	45a9                	li	a1,10
    50203548:	affff0ef          	jal	ra,50203046 <mini_itoa>
    5020354c:	87aa                	mv	a5,a0
    5020354e:	fcf42e23          	sw	a5,-36(s0)
    50203552:	fc040693          	addi	a3,s0,-64
    50203556:	fdc42703          	lw	a4,-36(s0)
    5020355a:	fa840793          	addi	a5,s0,-88
    5020355e:	8636                	mv	a2,a3
    50203560:	85ba                	mv	a1,a4
    50203562:	853e                	mv	a0,a5
    50203564:	d39ff0ef          	jal	ra,5020329c <_puts>
    50203568:	fe042423          	sw	zero,-24(s0)
    5020356c:	a0dd                	j	50203652 <mini_vsnprintf+0x300>
    5020356e:	fe842783          	lw	a5,-24(s0)
    50203572:	2781                	sext.w	a5,a5
    50203574:	ef81                	bnez	a5,5020358c <mini_vsnprintf+0x23a>
    50203576:	f8043783          	ld	a5,-128(s0)
    5020357a:	00878713          	addi	a4,a5,8
    5020357e:	f8e43023          	sd	a4,-128(s0)
    50203582:	439c                	lw	a5,0(a5)
    50203584:	02079513          	slli	a0,a5,0x20
    50203588:	9101                	srli	a0,a0,0x20
    5020358a:	a809                	j	5020359c <mini_vsnprintf+0x24a>
    5020358c:	f8043783          	ld	a5,-128(s0)
    50203590:	00878713          	addi	a4,a5,8
    50203594:	f8e43023          	sd	a4,-128(s0)
    50203598:	639c                	ld	a5,0(a5)
    5020359a:	853e                	mv	a0,a5
    5020359c:	fef44783          	lbu	a5,-17(s0)
    502035a0:	0007871b          	sext.w	a4,a5
    502035a4:	05800793          	li	a5,88
    502035a8:	40f707b3          	sub	a5,a4,a5
    502035ac:	0017b793          	seqz	a5,a5
    502035b0:	0ff7f793          	andi	a5,a5,255
    502035b4:	0007861b          	sext.w	a2,a5
    502035b8:	fee44783          	lbu	a5,-18(s0)
    502035bc:	2781                	sext.w	a5,a5
    502035be:	fa840713          	addi	a4,s0,-88
    502035c2:	4685                	li	a3,1
    502035c4:	45c1                	li	a1,16
    502035c6:	a81ff0ef          	jal	ra,50203046 <mini_itoa>
    502035ca:	87aa                	mv	a5,a0
    502035cc:	fcf42e23          	sw	a5,-36(s0)
    502035d0:	fc040693          	addi	a3,s0,-64
    502035d4:	fdc42703          	lw	a4,-36(s0)
    502035d8:	fa840793          	addi	a5,s0,-88
    502035dc:	8636                	mv	a2,a3
    502035de:	85ba                	mv	a1,a4
    502035e0:	853e                	mv	a0,a5
    502035e2:	cbbff0ef          	jal	ra,5020329c <_puts>
    502035e6:	fe042423          	sw	zero,-24(s0)
    502035ea:	a0a5                	j	50203652 <mini_vsnprintf+0x300>
    502035ec:	f8043783          	ld	a5,-128(s0)
    502035f0:	00878713          	addi	a4,a5,8
    502035f4:	f8e43023          	sd	a4,-128(s0)
    502035f8:	439c                	lw	a5,0(a5)
    502035fa:	0ff7f793          	andi	a5,a5,255
    502035fe:	2781                	sext.w	a5,a5
    50203600:	fc040713          	addi	a4,s0,-64
    50203604:	85ba                	mv	a1,a4
    50203606:	853e                	mv	a0,a5
    50203608:	c2fff0ef          	jal	ra,50203236 <_putc>
    5020360c:	a099                	j	50203652 <mini_vsnprintf+0x300>
    5020360e:	f8043783          	ld	a5,-128(s0)
    50203612:	00878713          	addi	a4,a5,8
    50203616:	f8e43023          	sd	a4,-128(s0)
    5020361a:	639c                	ld	a5,0(a5)
    5020361c:	fef43023          	sd	a5,-32(s0)
    50203620:	fe043503          	ld	a0,-32(s0)
    50203624:	9edff0ef          	jal	ra,50203010 <mini_strlen>
    50203628:	87aa                	mv	a5,a0
    5020362a:	2781                	sext.w	a5,a5
    5020362c:	fc040713          	addi	a4,s0,-64
    50203630:	863a                	mv	a2,a4
    50203632:	85be                	mv	a1,a5
    50203634:	fe043503          	ld	a0,-32(s0)
    50203638:	c65ff0ef          	jal	ra,5020329c <_puts>
    5020363c:	a819                	j	50203652 <mini_vsnprintf+0x300>
    5020363e:	fef44783          	lbu	a5,-17(s0)
    50203642:	2781                	sext.w	a5,a5
    50203644:	fc040713          	addi	a4,s0,-64
    50203648:	85ba                	mv	a1,a4
    5020364a:	853e                	mv	a0,a5
    5020364c:	bebff0ef          	jal	ra,50203236 <_putc>
    50203650:	0001                	nop
    50203652:	f8843783          	ld	a5,-120(s0)
    50203656:	00178713          	addi	a4,a5,1
    5020365a:	f8e43423          	sd	a4,-120(s0)
    5020365e:	0007c783          	lbu	a5,0(a5)
    50203662:	fef407a3          	sb	a5,-17(s0)
    50203666:	fef44783          	lbu	a5,-17(s0)
    5020366a:	0ff7f793          	andi	a5,a5,255
    5020366e:	d0079ce3          	bnez	a5,50203386 <mini_vsnprintf+0x34>
    50203672:	a031                	j	5020367e <mini_vsnprintf+0x32c>
    50203674:	0001                	nop
    50203676:	a021                	j	5020367e <mini_vsnprintf+0x32c>
    50203678:	0001                	nop
    5020367a:	a011                	j	5020367e <mini_vsnprintf+0x32c>
    5020367c:	0001                	nop
    5020367e:	fc843703          	ld	a4,-56(s0)
    50203682:	fc043783          	ld	a5,-64(s0)
    50203686:	40f707b3          	sub	a5,a4,a5
    5020368a:	2781                	sext.w	a5,a5
    5020368c:	853e                	mv	a0,a5
    5020368e:	70e6                	ld	ra,120(sp)
    50203690:	7446                	ld	s0,112(sp)
    50203692:	6109                	addi	sp,sp,128
    50203694:	8082                	ret

0000000050203696 <vprintk>:
    50203696:	7169                	addi	sp,sp,-304
    50203698:	f606                	sd	ra,296(sp)
    5020369a:	f222                	sd	s0,288(sp)
    5020369c:	1a00                	addi	s0,sp,304
    5020369e:	eca43c23          	sd	a0,-296(s0)
    502036a2:	ecb43823          	sd	a1,-304(s0)
    502036a6:	ed043783          	ld	a5,-304(s0)
    502036aa:	fef43023          	sd	a5,-32(s0)
    502036ae:	fe043703          	ld	a4,-32(s0)
    502036b2:	ee040793          	addi	a5,s0,-288
    502036b6:	86ba                	mv	a3,a4
    502036b8:	ed843603          	ld	a2,-296(s0)
    502036bc:	10000593          	li	a1,256
    502036c0:	853e                	mv	a0,a5
    502036c2:	c91ff0ef          	jal	ra,50203352 <mini_vsnprintf>
    502036c6:	87aa                	mv	a5,a0
    502036c8:	fef42423          	sw	a5,-24(s0)
    502036cc:	fe842783          	lw	a5,-24(s0)
    502036d0:	ff040713          	addi	a4,s0,-16
    502036d4:	97ba                	add	a5,a5,a4
    502036d6:	ee078823          	sb	zero,-272(a5)
    502036da:	9c3fd0ef          	jal	ra,5020109c <disable_preempt>
    502036de:	ee040793          	addi	a5,s0,-288
    502036e2:	853e                	mv	a0,a5
    502036e4:	ba3fd0ef          	jal	ra,50201286 <port_write>
    502036e8:	fe042623          	sw	zero,-20(s0)
    502036ec:	a0bd                	j	5020375a <vprintk+0xc4>
    502036ee:	fec42783          	lw	a5,-20(s0)
    502036f2:	ff040713          	addi	a4,s0,-16
    502036f6:	97ba                	add	a5,a5,a4
    502036f8:	ef07c783          	lbu	a5,-272(a5)
    502036fc:	873e                	mv	a4,a5
    502036fe:	47a9                	li	a5,10
    50203700:	00f71c63          	bne	a4,a5,50203718 <vprintk+0x82>
    50203704:	00005797          	auipc	a5,0x5
    50203708:	1b478793          	addi	a5,a5,436 # 502088b8 <current_running>
    5020370c:	639c                	ld	a5,0(a5)
    5020370e:	4ff8                	lw	a4,92(a5)
    50203710:	2705                	addiw	a4,a4,1
    50203712:	2701                	sext.w	a4,a4
    50203714:	cff8                	sw	a4,92(a5)
    50203716:	a82d                	j	50203750 <vprintk+0xba>
    50203718:	fec42783          	lw	a5,-20(s0)
    5020371c:	ff040713          	addi	a4,s0,-16
    50203720:	97ba                	add	a5,a5,a4
    50203722:	ef07c783          	lbu	a5,-272(a5)
    50203726:	873e                	mv	a4,a5
    50203728:	47b5                	li	a5,13
    5020372a:	00f71a63          	bne	a4,a5,5020373e <vprintk+0xa8>
    5020372e:	00005797          	auipc	a5,0x5
    50203732:	18a78793          	addi	a5,a5,394 # 502088b8 <current_running>
    50203736:	639c                	ld	a5,0(a5)
    50203738:	4705                	li	a4,1
    5020373a:	cfb8                	sw	a4,88(a5)
    5020373c:	a811                	j	50203750 <vprintk+0xba>
    5020373e:	00005797          	auipc	a5,0x5
    50203742:	17a78793          	addi	a5,a5,378 # 502088b8 <current_running>
    50203746:	639c                	ld	a5,0(a5)
    50203748:	4fb8                	lw	a4,88(a5)
    5020374a:	2705                	addiw	a4,a4,1
    5020374c:	2701                	sext.w	a4,a4
    5020374e:	cfb8                	sw	a4,88(a5)
    50203750:	fec42783          	lw	a5,-20(s0)
    50203754:	2785                	addiw	a5,a5,1
    50203756:	fef42623          	sw	a5,-20(s0)
    5020375a:	fec42703          	lw	a4,-20(s0)
    5020375e:	fe842783          	lw	a5,-24(s0)
    50203762:	2701                	sext.w	a4,a4
    50203764:	2781                	sext.w	a5,a5
    50203766:	f8f744e3          	blt	a4,a5,502036ee <vprintk+0x58>
    5020376a:	90bfd0ef          	jal	ra,50201074 <enable_preempt>
    5020376e:	fe842783          	lw	a5,-24(s0)
    50203772:	853e                	mv	a0,a5
    50203774:	70b2                	ld	ra,296(sp)
    50203776:	7412                	ld	s0,288(sp)
    50203778:	6155                	addi	sp,sp,304
    5020377a:	8082                	ret

000000005020377c <printk>:
    5020377c:	7159                	addi	sp,sp,-112
    5020377e:	f406                	sd	ra,40(sp)
    50203780:	f022                	sd	s0,32(sp)
    50203782:	1800                	addi	s0,sp,48
    50203784:	fca43c23          	sd	a0,-40(s0)
    50203788:	e40c                	sd	a1,8(s0)
    5020378a:	e810                	sd	a2,16(s0)
    5020378c:	ec14                	sd	a3,24(s0)
    5020378e:	f018                	sd	a4,32(s0)
    50203790:	f41c                	sd	a5,40(s0)
    50203792:	03043823          	sd	a6,48(s0)
    50203796:	03143c23          	sd	a7,56(s0)
    5020379a:	fe042623          	sw	zero,-20(s0)
    5020379e:	04040793          	addi	a5,s0,64
    502037a2:	fcf43823          	sd	a5,-48(s0)
    502037a6:	fd043783          	ld	a5,-48(s0)
    502037aa:	fc878793          	addi	a5,a5,-56
    502037ae:	fef43023          	sd	a5,-32(s0)
    502037b2:	fe043783          	ld	a5,-32(s0)
    502037b6:	85be                	mv	a1,a5
    502037b8:	fd843503          	ld	a0,-40(s0)
    502037bc:	edbff0ef          	jal	ra,50203696 <vprintk>
    502037c0:	87aa                	mv	a5,a0
    502037c2:	fef42623          	sw	a5,-20(s0)
    502037c6:	fec42783          	lw	a5,-20(s0)
    502037ca:	853e                	mv	a0,a5
    502037cc:	70a2                	ld	ra,40(sp)
    502037ce:	7402                	ld	s0,32(sp)
    502037d0:	6165                	addi	sp,sp,112
    502037d2:	8082                	ret

00000000502037d4 <mini_itoa>:
    502037d4:	715d                	addi	sp,sp,-80
    502037d6:	e4a2                	sd	s0,72(sp)
    502037d8:	0880                	addi	s0,sp,80
    502037da:	fca43423          	sd	a0,-56(s0)
    502037de:	fae43823          	sd	a4,-80(s0)
    502037e2:	873e                	mv	a4,a5
    502037e4:	87ae                	mv	a5,a1
    502037e6:	fcf42223          	sw	a5,-60(s0)
    502037ea:	87b2                	mv	a5,a2
    502037ec:	fcf42023          	sw	a5,-64(s0)
    502037f0:	87b6                	mv	a5,a3
    502037f2:	faf42e23          	sw	a5,-68(s0)
    502037f6:	87ba                	mv	a5,a4
    502037f8:	faf42c23          	sw	a5,-72(s0)
    502037fc:	fb043783          	ld	a5,-80(s0)
    50203800:	fef43423          	sd	a5,-24(s0)
    50203804:	fe042223          	sw	zero,-28(s0)
    50203808:	fc442783          	lw	a5,-60(s0)
    5020380c:	0007871b          	sext.w	a4,a5
    50203810:	47c1                	li	a5,16
    50203812:	00e7f463          	bgeu	a5,a4,5020381a <mini_itoa+0x46>
    50203816:	4781                	li	a5,0
    50203818:	a255                	j	502039bc <mini_itoa+0x1e8>
    5020381a:	fc843783          	ld	a5,-56(s0)
    5020381e:	0007df63          	bgez	a5,5020383c <mini_itoa+0x68>
    50203822:	fbc42783          	lw	a5,-68(s0)
    50203826:	2781                	sext.w	a5,a5
    50203828:	eb91                	bnez	a5,5020383c <mini_itoa+0x68>
    5020382a:	4785                	li	a5,1
    5020382c:	fef42223          	sw	a5,-28(s0)
    50203830:	fc843783          	ld	a5,-56(s0)
    50203834:	40f007b3          	neg	a5,a5
    50203838:	fcf43423          	sd	a5,-56(s0)
    5020383c:	fc446783          	lwu	a5,-60(s0)
    50203840:	fc843703          	ld	a4,-56(s0)
    50203844:	02f767b3          	rem	a5,a4,a5
    50203848:	fcf42e23          	sw	a5,-36(s0)
    5020384c:	fdc42783          	lw	a5,-36(s0)
    50203850:	0007871b          	sext.w	a4,a5
    50203854:	47a5                	li	a5,9
    50203856:	00e7cb63          	blt	a5,a4,5020386c <mini_itoa+0x98>
    5020385a:	fdc42783          	lw	a5,-36(s0)
    5020385e:	0ff7f793          	andi	a5,a5,255
    50203862:	0307879b          	addiw	a5,a5,48
    50203866:	0ff7f713          	andi	a4,a5,255
    5020386a:	a025                	j	50203892 <mini_itoa+0xbe>
    5020386c:	fc042783          	lw	a5,-64(s0)
    50203870:	2781                	sext.w	a5,a5
    50203872:	c781                	beqz	a5,5020387a <mini_itoa+0xa6>
    50203874:	04100793          	li	a5,65
    50203878:	a019                	j	5020387e <mini_itoa+0xaa>
    5020387a:	06100793          	li	a5,97
    5020387e:	fdc42703          	lw	a4,-36(s0)
    50203882:	0ff77713          	andi	a4,a4,255
    50203886:	9fb9                	addw	a5,a5,a4
    50203888:	0ff7f793          	andi	a5,a5,255
    5020388c:	37d9                	addiw	a5,a5,-10
    5020388e:	0ff7f713          	andi	a4,a5,255
    50203892:	fe843783          	ld	a5,-24(s0)
    50203896:	00178693          	addi	a3,a5,1
    5020389a:	fed43423          	sd	a3,-24(s0)
    5020389e:	00e78023          	sb	a4,0(a5)
    502038a2:	fc446783          	lwu	a5,-60(s0)
    502038a6:	fc843703          	ld	a4,-56(s0)
    502038aa:	02f747b3          	div	a5,a4,a5
    502038ae:	fcf43423          	sd	a5,-56(s0)
    502038b2:	fc843783          	ld	a5,-56(s0)
    502038b6:	f8f043e3          	bgtz	a5,5020383c <mini_itoa+0x68>
    502038ba:	fe843703          	ld	a4,-24(s0)
    502038be:	fb043783          	ld	a5,-80(s0)
    502038c2:	40f707b3          	sub	a5,a4,a5
    502038c6:	fef42023          	sw	a5,-32(s0)
    502038ca:	a005                	j	502038ea <mini_itoa+0x116>
    502038cc:	fe843783          	ld	a5,-24(s0)
    502038d0:	00178713          	addi	a4,a5,1
    502038d4:	fee43423          	sd	a4,-24(s0)
    502038d8:	03000713          	li	a4,48
    502038dc:	00e78023          	sb	a4,0(a5)
    502038e0:	fe042783          	lw	a5,-32(s0)
    502038e4:	2785                	addiw	a5,a5,1
    502038e6:	fef42023          	sw	a5,-32(s0)
    502038ea:	fe042703          	lw	a4,-32(s0)
    502038ee:	fb842783          	lw	a5,-72(s0)
    502038f2:	2701                	sext.w	a4,a4
    502038f4:	2781                	sext.w	a5,a5
    502038f6:	fcf76be3          	bltu	a4,a5,502038cc <mini_itoa+0xf8>
    502038fa:	fe442783          	lw	a5,-28(s0)
    502038fe:	2781                	sext.w	a5,a5
    50203900:	cb99                	beqz	a5,50203916 <mini_itoa+0x142>
    50203902:	fe843783          	ld	a5,-24(s0)
    50203906:	00178713          	addi	a4,a5,1
    5020390a:	fee43423          	sd	a4,-24(s0)
    5020390e:	02d00713          	li	a4,45
    50203912:	00e78023          	sb	a4,0(a5)
    50203916:	fe843783          	ld	a5,-24(s0)
    5020391a:	00078023          	sb	zero,0(a5)
    5020391e:	fe843703          	ld	a4,-24(s0)
    50203922:	fb043783          	ld	a5,-80(s0)
    50203926:	40f707b3          	sub	a5,a4,a5
    5020392a:	fcf42c23          	sw	a5,-40(s0)
    5020392e:	fe042023          	sw	zero,-32(s0)
    50203932:	a885                	j	502039a2 <mini_itoa+0x1ce>
    50203934:	fe046783          	lwu	a5,-32(s0)
    50203938:	fb043703          	ld	a4,-80(s0)
    5020393c:	97ba                	add	a5,a5,a4
    5020393e:	0007c783          	lbu	a5,0(a5)
    50203942:	fcf40ba3          	sb	a5,-41(s0)
    50203946:	fd842703          	lw	a4,-40(s0)
    5020394a:	fe042783          	lw	a5,-32(s0)
    5020394e:	40f707bb          	subw	a5,a4,a5
    50203952:	2781                	sext.w	a5,a5
    50203954:	37fd                	addiw	a5,a5,-1
    50203956:	2781                	sext.w	a5,a5
    50203958:	1782                	slli	a5,a5,0x20
    5020395a:	9381                	srli	a5,a5,0x20
    5020395c:	fb043703          	ld	a4,-80(s0)
    50203960:	973e                	add	a4,a4,a5
    50203962:	fe046783          	lwu	a5,-32(s0)
    50203966:	fb043683          	ld	a3,-80(s0)
    5020396a:	97b6                	add	a5,a5,a3
    5020396c:	00074703          	lbu	a4,0(a4)
    50203970:	00e78023          	sb	a4,0(a5)
    50203974:	fd842703          	lw	a4,-40(s0)
    50203978:	fe042783          	lw	a5,-32(s0)
    5020397c:	40f707bb          	subw	a5,a4,a5
    50203980:	2781                	sext.w	a5,a5
    50203982:	37fd                	addiw	a5,a5,-1
    50203984:	2781                	sext.w	a5,a5
    50203986:	1782                	slli	a5,a5,0x20
    50203988:	9381                	srli	a5,a5,0x20
    5020398a:	fb043703          	ld	a4,-80(s0)
    5020398e:	97ba                	add	a5,a5,a4
    50203990:	fd744703          	lbu	a4,-41(s0)
    50203994:	00e78023          	sb	a4,0(a5)
    50203998:	fe042783          	lw	a5,-32(s0)
    5020399c:	2785                	addiw	a5,a5,1
    5020399e:	fef42023          	sw	a5,-32(s0)
    502039a2:	fd842783          	lw	a5,-40(s0)
    502039a6:	0017d79b          	srliw	a5,a5,0x1
    502039aa:	0007871b          	sext.w	a4,a5
    502039ae:	fe042783          	lw	a5,-32(s0)
    502039b2:	2781                	sext.w	a5,a5
    502039b4:	f8e7e0e3          	bltu	a5,a4,50203934 <mini_itoa+0x160>
    502039b8:	fd842783          	lw	a5,-40(s0)
    502039bc:	853e                	mv	a0,a5
    502039be:	6426                	ld	s0,72(sp)
    502039c0:	6161                	addi	sp,sp,80
    502039c2:	8082                	ret

00000000502039c4 <_putc>:
    502039c4:	1101                	addi	sp,sp,-32
    502039c6:	ec22                	sd	s0,24(sp)
    502039c8:	1000                	addi	s0,sp,32
    502039ca:	87aa                	mv	a5,a0
    502039cc:	feb43023          	sd	a1,-32(s0)
    502039d0:	fef42623          	sw	a5,-20(s0)
    502039d4:	fe043783          	ld	a5,-32(s0)
    502039d8:	6798                	ld	a4,8(a5)
    502039da:	fe043783          	ld	a5,-32(s0)
    502039de:	639c                	ld	a5,0(a5)
    502039e0:	40f707b3          	sub	a5,a4,a5
    502039e4:	2781                	sext.w	a5,a5
    502039e6:	2785                	addiw	a5,a5,1
    502039e8:	0007871b          	sext.w	a4,a5
    502039ec:	fe043783          	ld	a5,-32(s0)
    502039f0:	4b9c                	lw	a5,16(a5)
    502039f2:	00f76463          	bltu	a4,a5,502039fa <_putc+0x36>
    502039f6:	4781                	li	a5,0
    502039f8:	a02d                	j	50203a22 <_putc+0x5e>
    502039fa:	fe043783          	ld	a5,-32(s0)
    502039fe:	679c                	ld	a5,8(a5)
    50203a00:	00178693          	addi	a3,a5,1
    50203a04:	fe043703          	ld	a4,-32(s0)
    50203a08:	e714                	sd	a3,8(a4)
    50203a0a:	fec42703          	lw	a4,-20(s0)
    50203a0e:	0ff77713          	andi	a4,a4,255
    50203a12:	00e78023          	sb	a4,0(a5)
    50203a16:	fe043783          	ld	a5,-32(s0)
    50203a1a:	679c                	ld	a5,8(a5)
    50203a1c:	00078023          	sb	zero,0(a5)
    50203a20:	4785                	li	a5,1
    50203a22:	853e                	mv	a0,a5
    50203a24:	6462                	ld	s0,24(sp)
    50203a26:	6105                	addi	sp,sp,32
    50203a28:	8082                	ret

0000000050203a2a <_puts>:
    50203a2a:	7139                	addi	sp,sp,-64
    50203a2c:	fc22                	sd	s0,56(sp)
    50203a2e:	0080                	addi	s0,sp,64
    50203a30:	fca43c23          	sd	a0,-40(s0)
    50203a34:	87ae                	mv	a5,a1
    50203a36:	fcc43423          	sd	a2,-56(s0)
    50203a3a:	fcf42a23          	sw	a5,-44(s0)
    50203a3e:	fc843783          	ld	a5,-56(s0)
    50203a42:	4b9c                	lw	a5,16(a5)
    50203a44:	02079713          	slli	a4,a5,0x20
    50203a48:	9301                	srli	a4,a4,0x20
    50203a4a:	fc843783          	ld	a5,-56(s0)
    50203a4e:	6794                	ld	a3,8(a5)
    50203a50:	fc843783          	ld	a5,-56(s0)
    50203a54:	639c                	ld	a5,0(a5)
    50203a56:	40f687b3          	sub	a5,a3,a5
    50203a5a:	8f1d                	sub	a4,a4,a5
    50203a5c:	fd446783          	lwu	a5,-44(s0)
    50203a60:	02e7c463          	blt	a5,a4,50203a88 <_puts+0x5e>
    50203a64:	fc843783          	ld	a5,-56(s0)
    50203a68:	4b98                	lw	a4,16(a5)
    50203a6a:	fc843783          	ld	a5,-56(s0)
    50203a6e:	6794                	ld	a3,8(a5)
    50203a70:	fc843783          	ld	a5,-56(s0)
    50203a74:	639c                	ld	a5,0(a5)
    50203a76:	40f687b3          	sub	a5,a3,a5
    50203a7a:	2781                	sext.w	a5,a5
    50203a7c:	40f707bb          	subw	a5,a4,a5
    50203a80:	2781                	sext.w	a5,a5
    50203a82:	37fd                	addiw	a5,a5,-1
    50203a84:	fcf42a23          	sw	a5,-44(s0)
    50203a88:	fe042623          	sw	zero,-20(s0)
    50203a8c:	a03d                	j	50203aba <_puts+0x90>
    50203a8e:	fec46783          	lwu	a5,-20(s0)
    50203a92:	fd843703          	ld	a4,-40(s0)
    50203a96:	973e                	add	a4,a4,a5
    50203a98:	fc843783          	ld	a5,-56(s0)
    50203a9c:	679c                	ld	a5,8(a5)
    50203a9e:	00178613          	addi	a2,a5,1
    50203aa2:	fc843683          	ld	a3,-56(s0)
    50203aa6:	e690                	sd	a2,8(a3)
    50203aa8:	00074703          	lbu	a4,0(a4)
    50203aac:	00e78023          	sb	a4,0(a5)
    50203ab0:	fec42783          	lw	a5,-20(s0)
    50203ab4:	2785                	addiw	a5,a5,1
    50203ab6:	fef42623          	sw	a5,-20(s0)
    50203aba:	fec42703          	lw	a4,-20(s0)
    50203abe:	fd442783          	lw	a5,-44(s0)
    50203ac2:	2701                	sext.w	a4,a4
    50203ac4:	2781                	sext.w	a5,a5
    50203ac6:	fcf764e3          	bltu	a4,a5,50203a8e <_puts+0x64>
    50203aca:	fc843783          	ld	a5,-56(s0)
    50203ace:	679c                	ld	a5,8(a5)
    50203ad0:	00078023          	sb	zero,0(a5)
    50203ad4:	fd442783          	lw	a5,-44(s0)
    50203ad8:	853e                	mv	a0,a5
    50203ada:	7462                	ld	s0,56(sp)
    50203adc:	6121                	addi	sp,sp,64
    50203ade:	8082                	ret

0000000050203ae0 <mini_vsnprintf>:
    50203ae0:	7119                	addi	sp,sp,-128
    50203ae2:	fc86                	sd	ra,120(sp)
    50203ae4:	f8a2                	sd	s0,112(sp)
    50203ae6:	0100                	addi	s0,sp,128
    50203ae8:	f8a43c23          	sd	a0,-104(s0)
    50203aec:	87ae                	mv	a5,a1
    50203aee:	f8c43423          	sd	a2,-120(s0)
    50203af2:	f8d43023          	sd	a3,-128(s0)
    50203af6:	f8f42a23          	sw	a5,-108(s0)
    50203afa:	f9843783          	ld	a5,-104(s0)
    50203afe:	fcf43023          	sd	a5,-64(s0)
    50203b02:	f9843783          	ld	a5,-104(s0)
    50203b06:	fcf43423          	sd	a5,-56(s0)
    50203b0a:	f9442783          	lw	a5,-108(s0)
    50203b0e:	fcf42823          	sw	a5,-48(s0)
    50203b12:	a4f9                	j	50203de0 <mini_vsnprintf+0x300>
    50203b14:	fc843703          	ld	a4,-56(s0)
    50203b18:	fc043783          	ld	a5,-64(s0)
    50203b1c:	40f707b3          	sub	a5,a4,a5
    50203b20:	2781                	sext.w	a5,a5
    50203b22:	2785                	addiw	a5,a5,1
    50203b24:	0007871b          	sext.w	a4,a5
    50203b28:	fd042783          	lw	a5,-48(s0)
    50203b2c:	2cf77b63          	bgeu	a4,a5,50203e02 <mini_vsnprintf+0x322>
    50203b30:	fef44783          	lbu	a5,-17(s0)
    50203b34:	0ff7f713          	andi	a4,a5,255
    50203b38:	02500793          	li	a5,37
    50203b3c:	00f70c63          	beq	a4,a5,50203b54 <mini_vsnprintf+0x74>
    50203b40:	fef44783          	lbu	a5,-17(s0)
    50203b44:	2781                	sext.w	a5,a5
    50203b46:	fc040713          	addi	a4,s0,-64
    50203b4a:	85ba                	mv	a1,a4
    50203b4c:	853e                	mv	a0,a5
    50203b4e:	e77ff0ef          	jal	ra,502039c4 <_putc>
    50203b52:	a479                	j	50203de0 <mini_vsnprintf+0x300>
    50203b54:	fe040723          	sb	zero,-18(s0)
    50203b58:	fe042423          	sw	zero,-24(s0)
    50203b5c:	f8843783          	ld	a5,-120(s0)
    50203b60:	00178713          	addi	a4,a5,1
    50203b64:	f8e43423          	sd	a4,-120(s0)
    50203b68:	0007c783          	lbu	a5,0(a5)
    50203b6c:	fef407a3          	sb	a5,-17(s0)
    50203b70:	fef44783          	lbu	a5,-17(s0)
    50203b74:	0ff7f713          	andi	a4,a5,255
    50203b78:	03000793          	li	a5,48
    50203b7c:	06f71b63          	bne	a4,a5,50203bf2 <mini_vsnprintf+0x112>
    50203b80:	a891                	j	50203bd4 <mini_vsnprintf+0xf4>
    50203b82:	fef44783          	lbu	a5,-17(s0)
    50203b86:	0ff7f793          	andi	a5,a5,255
    50203b8a:	26078e63          	beqz	a5,50203e06 <mini_vsnprintf+0x326>
    50203b8e:	fef44783          	lbu	a5,-17(s0)
    50203b92:	0ff7f713          	andi	a4,a5,255
    50203b96:	02f00793          	li	a5,47
    50203b9a:	04e7fc63          	bgeu	a5,a4,50203bf2 <mini_vsnprintf+0x112>
    50203b9e:	fef44783          	lbu	a5,-17(s0)
    50203ba2:	0ff7f713          	andi	a4,a5,255
    50203ba6:	03900793          	li	a5,57
    50203baa:	04e7e463          	bltu	a5,a4,50203bf2 <mini_vsnprintf+0x112>
    50203bae:	fee44703          	lbu	a4,-18(s0)
    50203bb2:	87ba                	mv	a5,a4
    50203bb4:	0027979b          	slliw	a5,a5,0x2
    50203bb8:	9fb9                	addw	a5,a5,a4
    50203bba:	0017979b          	slliw	a5,a5,0x1
    50203bbe:	0ff7f793          	andi	a5,a5,255
    50203bc2:	fef44703          	lbu	a4,-17(s0)
    50203bc6:	9fb9                	addw	a5,a5,a4
    50203bc8:	0ff7f793          	andi	a5,a5,255
    50203bcc:	fd07879b          	addiw	a5,a5,-48
    50203bd0:	fef40723          	sb	a5,-18(s0)
    50203bd4:	f8843783          	ld	a5,-120(s0)
    50203bd8:	00178713          	addi	a4,a5,1
    50203bdc:	f8e43423          	sd	a4,-120(s0)
    50203be0:	0007c783          	lbu	a5,0(a5)
    50203be4:	fef407a3          	sb	a5,-17(s0)
    50203be8:	fef44783          	lbu	a5,-17(s0)
    50203bec:	0ff7f793          	andi	a5,a5,255
    50203bf0:	fbc9                	bnez	a5,50203b82 <mini_vsnprintf+0xa2>
    50203bf2:	fef44783          	lbu	a5,-17(s0)
    50203bf6:	0ff7f713          	andi	a4,a5,255
    50203bfa:	06c00793          	li	a5,108
    50203bfe:	00f71f63          	bne	a4,a5,50203c1c <mini_vsnprintf+0x13c>
    50203c02:	4785                	li	a5,1
    50203c04:	fef42423          	sw	a5,-24(s0)
    50203c08:	f8843783          	ld	a5,-120(s0)
    50203c0c:	00178713          	addi	a4,a5,1
    50203c10:	f8e43423          	sd	a4,-120(s0)
    50203c14:	0007c783          	lbu	a5,0(a5)
    50203c18:	fef407a3          	sb	a5,-17(s0)
    50203c1c:	fef44783          	lbu	a5,-17(s0)
    50203c20:	2781                	sext.w	a5,a5
    50203c22:	1e078463          	beqz	a5,50203e0a <mini_vsnprintf+0x32a>
    50203c26:	873e                	mv	a4,a5
    50203c28:	1a074263          	bltz	a4,50203dcc <mini_vsnprintf+0x2ec>
    50203c2c:	86be                	mv	a3,a5
    50203c2e:	07800713          	li	a4,120
    50203c32:	18d74d63          	blt	a4,a3,50203dcc <mini_vsnprintf+0x2ec>
    50203c36:	86be                	mv	a3,a5
    50203c38:	05800713          	li	a4,88
    50203c3c:	18e6c863          	blt	a3,a4,50203dcc <mini_vsnprintf+0x2ec>
    50203c40:	fa87869b          	addiw	a3,a5,-88
    50203c44:	0006871b          	sext.w	a4,a3
    50203c48:	02000793          	li	a5,32
    50203c4c:	18e7e063          	bltu	a5,a4,50203dcc <mini_vsnprintf+0x2ec>
    50203c50:	02069793          	slli	a5,a3,0x20
    50203c54:	9381                	srli	a5,a5,0x20
    50203c56:	00279713          	slli	a4,a5,0x2
    50203c5a:	00002797          	auipc	a5,0x2
    50203c5e:	18e78793          	addi	a5,a5,398 # 50205de8 <__FUNCTION__.1433+0x100>
    50203c62:	97ba                	add	a5,a5,a4
    50203c64:	439c                	lw	a5,0(a5)
    50203c66:	0007871b          	sext.w	a4,a5
    50203c6a:	00002797          	auipc	a5,0x2
    50203c6e:	17e78793          	addi	a5,a5,382 # 50205de8 <__FUNCTION__.1433+0x100>
    50203c72:	97ba                	add	a5,a5,a4
    50203c74:	8782                	jr	a5
    50203c76:	4785                	li	a5,1
    50203c78:	fef42423          	sw	a5,-24(s0)
    50203c7c:	a295                	j	50203de0 <mini_vsnprintf+0x300>
    50203c7e:	fe842783          	lw	a5,-24(s0)
    50203c82:	2781                	sext.w	a5,a5
    50203c84:	ef81                	bnez	a5,50203c9c <mini_vsnprintf+0x1bc>
    50203c86:	f8043783          	ld	a5,-128(s0)
    50203c8a:	00878713          	addi	a4,a5,8
    50203c8e:	f8e43023          	sd	a4,-128(s0)
    50203c92:	439c                	lw	a5,0(a5)
    50203c94:	02079513          	slli	a0,a5,0x20
    50203c98:	9101                	srli	a0,a0,0x20
    50203c9a:	a809                	j	50203cac <mini_vsnprintf+0x1cc>
    50203c9c:	f8043783          	ld	a5,-128(s0)
    50203ca0:	00878713          	addi	a4,a5,8
    50203ca4:	f8e43023          	sd	a4,-128(s0)
    50203ca8:	639c                	ld	a5,0(a5)
    50203caa:	853e                	mv	a0,a5
    50203cac:	fef44783          	lbu	a5,-17(s0)
    50203cb0:	0007871b          	sext.w	a4,a5
    50203cb4:	07500793          	li	a5,117
    50203cb8:	40f707b3          	sub	a5,a4,a5
    50203cbc:	0017b793          	seqz	a5,a5
    50203cc0:	0ff7f793          	andi	a5,a5,255
    50203cc4:	0007869b          	sext.w	a3,a5
    50203cc8:	fee44783          	lbu	a5,-18(s0)
    50203ccc:	2781                	sext.w	a5,a5
    50203cce:	fa840713          	addi	a4,s0,-88
    50203cd2:	4601                	li	a2,0
    50203cd4:	45a9                	li	a1,10
    50203cd6:	affff0ef          	jal	ra,502037d4 <mini_itoa>
    50203cda:	87aa                	mv	a5,a0
    50203cdc:	fcf42e23          	sw	a5,-36(s0)
    50203ce0:	fc040693          	addi	a3,s0,-64
    50203ce4:	fdc42703          	lw	a4,-36(s0)
    50203ce8:	fa840793          	addi	a5,s0,-88
    50203cec:	8636                	mv	a2,a3
    50203cee:	85ba                	mv	a1,a4
    50203cf0:	853e                	mv	a0,a5
    50203cf2:	d39ff0ef          	jal	ra,50203a2a <_puts>
    50203cf6:	fe042423          	sw	zero,-24(s0)
    50203cfa:	a0dd                	j	50203de0 <mini_vsnprintf+0x300>
    50203cfc:	fe842783          	lw	a5,-24(s0)
    50203d00:	2781                	sext.w	a5,a5
    50203d02:	ef81                	bnez	a5,50203d1a <mini_vsnprintf+0x23a>
    50203d04:	f8043783          	ld	a5,-128(s0)
    50203d08:	00878713          	addi	a4,a5,8
    50203d0c:	f8e43023          	sd	a4,-128(s0)
    50203d10:	439c                	lw	a5,0(a5)
    50203d12:	02079513          	slli	a0,a5,0x20
    50203d16:	9101                	srli	a0,a0,0x20
    50203d18:	a809                	j	50203d2a <mini_vsnprintf+0x24a>
    50203d1a:	f8043783          	ld	a5,-128(s0)
    50203d1e:	00878713          	addi	a4,a5,8
    50203d22:	f8e43023          	sd	a4,-128(s0)
    50203d26:	639c                	ld	a5,0(a5)
    50203d28:	853e                	mv	a0,a5
    50203d2a:	fef44783          	lbu	a5,-17(s0)
    50203d2e:	0007871b          	sext.w	a4,a5
    50203d32:	05800793          	li	a5,88
    50203d36:	40f707b3          	sub	a5,a4,a5
    50203d3a:	0017b793          	seqz	a5,a5
    50203d3e:	0ff7f793          	andi	a5,a5,255
    50203d42:	0007861b          	sext.w	a2,a5
    50203d46:	fee44783          	lbu	a5,-18(s0)
    50203d4a:	2781                	sext.w	a5,a5
    50203d4c:	fa840713          	addi	a4,s0,-88
    50203d50:	4685                	li	a3,1
    50203d52:	45c1                	li	a1,16
    50203d54:	a81ff0ef          	jal	ra,502037d4 <mini_itoa>
    50203d58:	87aa                	mv	a5,a0
    50203d5a:	fcf42e23          	sw	a5,-36(s0)
    50203d5e:	fc040693          	addi	a3,s0,-64
    50203d62:	fdc42703          	lw	a4,-36(s0)
    50203d66:	fa840793          	addi	a5,s0,-88
    50203d6a:	8636                	mv	a2,a3
    50203d6c:	85ba                	mv	a1,a4
    50203d6e:	853e                	mv	a0,a5
    50203d70:	cbbff0ef          	jal	ra,50203a2a <_puts>
    50203d74:	fe042423          	sw	zero,-24(s0)
    50203d78:	a0a5                	j	50203de0 <mini_vsnprintf+0x300>
    50203d7a:	f8043783          	ld	a5,-128(s0)
    50203d7e:	00878713          	addi	a4,a5,8
    50203d82:	f8e43023          	sd	a4,-128(s0)
    50203d86:	439c                	lw	a5,0(a5)
    50203d88:	0ff7f793          	andi	a5,a5,255
    50203d8c:	2781                	sext.w	a5,a5
    50203d8e:	fc040713          	addi	a4,s0,-64
    50203d92:	85ba                	mv	a1,a4
    50203d94:	853e                	mv	a0,a5
    50203d96:	c2fff0ef          	jal	ra,502039c4 <_putc>
    50203d9a:	a099                	j	50203de0 <mini_vsnprintf+0x300>
    50203d9c:	f8043783          	ld	a5,-128(s0)
    50203da0:	00878713          	addi	a4,a5,8
    50203da4:	f8e43023          	sd	a4,-128(s0)
    50203da8:	639c                	ld	a5,0(a5)
    50203daa:	fef43023          	sd	a5,-32(s0)
    50203dae:	fe043503          	ld	a0,-32(s0)
    50203db2:	126000ef          	jal	ra,50203ed8 <strlen>
    50203db6:	87aa                	mv	a5,a0
    50203db8:	2781                	sext.w	a5,a5
    50203dba:	fc040713          	addi	a4,s0,-64
    50203dbe:	863a                	mv	a2,a4
    50203dc0:	85be                	mv	a1,a5
    50203dc2:	fe043503          	ld	a0,-32(s0)
    50203dc6:	c65ff0ef          	jal	ra,50203a2a <_puts>
    50203dca:	a819                	j	50203de0 <mini_vsnprintf+0x300>
    50203dcc:	fef44783          	lbu	a5,-17(s0)
    50203dd0:	2781                	sext.w	a5,a5
    50203dd2:	fc040713          	addi	a4,s0,-64
    50203dd6:	85ba                	mv	a1,a4
    50203dd8:	853e                	mv	a0,a5
    50203dda:	bebff0ef          	jal	ra,502039c4 <_putc>
    50203dde:	0001                	nop
    50203de0:	f8843783          	ld	a5,-120(s0)
    50203de4:	00178713          	addi	a4,a5,1
    50203de8:	f8e43423          	sd	a4,-120(s0)
    50203dec:	0007c783          	lbu	a5,0(a5)
    50203df0:	fef407a3          	sb	a5,-17(s0)
    50203df4:	fef44783          	lbu	a5,-17(s0)
    50203df8:	0ff7f793          	andi	a5,a5,255
    50203dfc:	d0079ce3          	bnez	a5,50203b14 <mini_vsnprintf+0x34>
    50203e00:	a031                	j	50203e0c <mini_vsnprintf+0x32c>
    50203e02:	0001                	nop
    50203e04:	a021                	j	50203e0c <mini_vsnprintf+0x32c>
    50203e06:	0001                	nop
    50203e08:	a011                	j	50203e0c <mini_vsnprintf+0x32c>
    50203e0a:	0001                	nop
    50203e0c:	fc843703          	ld	a4,-56(s0)
    50203e10:	fc043783          	ld	a5,-64(s0)
    50203e14:	40f707b3          	sub	a5,a4,a5
    50203e18:	2781                	sext.w	a5,a5
    50203e1a:	853e                	mv	a0,a5
    50203e1c:	70e6                	ld	ra,120(sp)
    50203e1e:	7446                	ld	s0,112(sp)
    50203e20:	6109                	addi	sp,sp,128
    50203e22:	8082                	ret

0000000050203e24 <vprintf>:
    50203e24:	7169                	addi	sp,sp,-304
    50203e26:	f606                	sd	ra,296(sp)
    50203e28:	f222                	sd	s0,288(sp)
    50203e2a:	1a00                	addi	s0,sp,304
    50203e2c:	eca43c23          	sd	a0,-296(s0)
    50203e30:	ecb43823          	sd	a1,-304(s0)
    50203e34:	ed043783          	ld	a5,-304(s0)
    50203e38:	fef43023          	sd	a5,-32(s0)
    50203e3c:	fe043703          	ld	a4,-32(s0)
    50203e40:	ee040793          	addi	a5,s0,-288
    50203e44:	86ba                	mv	a3,a4
    50203e46:	ed843603          	ld	a2,-296(s0)
    50203e4a:	10000593          	li	a1,256
    50203e4e:	853e                	mv	a0,a5
    50203e50:	c91ff0ef          	jal	ra,50203ae0 <mini_vsnprintf>
    50203e54:	87aa                	mv	a5,a0
    50203e56:	fef42623          	sw	a5,-20(s0)
    50203e5a:	fec42783          	lw	a5,-20(s0)
    50203e5e:	ff040713          	addi	a4,s0,-16
    50203e62:	97ba                	add	a5,a5,a4
    50203e64:	ee078823          	sb	zero,-272(a5)
    50203e68:	ee040793          	addi	a5,s0,-288
    50203e6c:	853e                	mv	a0,a5
    50203e6e:	462000ef          	jal	ra,502042d0 <sys_write>
    50203e72:	fec42783          	lw	a5,-20(s0)
    50203e76:	853e                	mv	a0,a5
    50203e78:	70b2                	ld	ra,296(sp)
    50203e7a:	7412                	ld	s0,288(sp)
    50203e7c:	6155                	addi	sp,sp,304
    50203e7e:	8082                	ret

0000000050203e80 <printf>:
    50203e80:	7159                	addi	sp,sp,-112
    50203e82:	f406                	sd	ra,40(sp)
    50203e84:	f022                	sd	s0,32(sp)
    50203e86:	1800                	addi	s0,sp,48
    50203e88:	fca43c23          	sd	a0,-40(s0)
    50203e8c:	e40c                	sd	a1,8(s0)
    50203e8e:	e810                	sd	a2,16(s0)
    50203e90:	ec14                	sd	a3,24(s0)
    50203e92:	f018                	sd	a4,32(s0)
    50203e94:	f41c                	sd	a5,40(s0)
    50203e96:	03043823          	sd	a6,48(s0)
    50203e9a:	03143c23          	sd	a7,56(s0)
    50203e9e:	fe042623          	sw	zero,-20(s0)
    50203ea2:	04040793          	addi	a5,s0,64
    50203ea6:	fcf43823          	sd	a5,-48(s0)
    50203eaa:	fd043783          	ld	a5,-48(s0)
    50203eae:	fc878793          	addi	a5,a5,-56
    50203eb2:	fef43023          	sd	a5,-32(s0)
    50203eb6:	fe043783          	ld	a5,-32(s0)
    50203eba:	85be                	mv	a1,a5
    50203ebc:	fd843503          	ld	a0,-40(s0)
    50203ec0:	f65ff0ef          	jal	ra,50203e24 <vprintf>
    50203ec4:	87aa                	mv	a5,a0
    50203ec6:	fef42623          	sw	a5,-20(s0)
    50203eca:	fec42783          	lw	a5,-20(s0)
    50203ece:	853e                	mv	a0,a5
    50203ed0:	70a2                	ld	ra,40(sp)
    50203ed2:	7402                	ld	s0,32(sp)
    50203ed4:	6165                	addi	sp,sp,112
    50203ed6:	8082                	ret

0000000050203ed8 <strlen>:
    50203ed8:	7179                	addi	sp,sp,-48
    50203eda:	f422                	sd	s0,40(sp)
    50203edc:	1800                	addi	s0,sp,48
    50203ede:	fca43c23          	sd	a0,-40(s0)
    50203ee2:	fe042623          	sw	zero,-20(s0)
    50203ee6:	a031                	j	50203ef2 <strlen+0x1a>
    50203ee8:	fec42783          	lw	a5,-20(s0)
    50203eec:	2785                	addiw	a5,a5,1
    50203eee:	fef42623          	sw	a5,-20(s0)
    50203ef2:	fec42783          	lw	a5,-20(s0)
    50203ef6:	fd843703          	ld	a4,-40(s0)
    50203efa:	97ba                	add	a5,a5,a4
    50203efc:	0007c783          	lbu	a5,0(a5)
    50203f00:	f7e5                	bnez	a5,50203ee8 <strlen+0x10>
    50203f02:	fec42783          	lw	a5,-20(s0)
    50203f06:	853e                	mv	a0,a5
    50203f08:	7422                	ld	s0,40(sp)
    50203f0a:	6145                	addi	sp,sp,48
    50203f0c:	8082                	ret

0000000050203f0e <memcpy>:
    50203f0e:	7179                	addi	sp,sp,-48
    50203f10:	f422                	sd	s0,40(sp)
    50203f12:	1800                	addi	s0,sp,48
    50203f14:	fea43423          	sd	a0,-24(s0)
    50203f18:	feb43023          	sd	a1,-32(s0)
    50203f1c:	87b2                	mv	a5,a2
    50203f1e:	fcf42e23          	sw	a5,-36(s0)
    50203f22:	a035                	j	50203f4e <memcpy+0x40>
    50203f24:	fe043703          	ld	a4,-32(s0)
    50203f28:	00170793          	addi	a5,a4,1
    50203f2c:	fef43023          	sd	a5,-32(s0)
    50203f30:	fe843783          	ld	a5,-24(s0)
    50203f34:	00178693          	addi	a3,a5,1
    50203f38:	fed43423          	sd	a3,-24(s0)
    50203f3c:	00074703          	lbu	a4,0(a4)
    50203f40:	00e78023          	sb	a4,0(a5)
    50203f44:	fdc42783          	lw	a5,-36(s0)
    50203f48:	37fd                	addiw	a5,a5,-1
    50203f4a:	fcf42e23          	sw	a5,-36(s0)
    50203f4e:	fdc42783          	lw	a5,-36(s0)
    50203f52:	2781                	sext.w	a5,a5
    50203f54:	fbe1                	bnez	a5,50203f24 <memcpy+0x16>
    50203f56:	0001                	nop
    50203f58:	0001                	nop
    50203f5a:	7422                	ld	s0,40(sp)
    50203f5c:	6145                	addi	sp,sp,48
    50203f5e:	8082                	ret

0000000050203f60 <memset>:
    50203f60:	7179                	addi	sp,sp,-48
    50203f62:	f422                	sd	s0,40(sp)
    50203f64:	1800                	addi	s0,sp,48
    50203f66:	fca43c23          	sd	a0,-40(s0)
    50203f6a:	87ae                	mv	a5,a1
    50203f6c:	8732                	mv	a4,a2
    50203f6e:	fcf40ba3          	sb	a5,-41(s0)
    50203f72:	87ba                	mv	a5,a4
    50203f74:	fcf42823          	sw	a5,-48(s0)
    50203f78:	fd843783          	ld	a5,-40(s0)
    50203f7c:	fef43423          	sd	a5,-24(s0)
    50203f80:	a005                	j	50203fa0 <memset+0x40>
    50203f82:	fe843783          	ld	a5,-24(s0)
    50203f86:	00178713          	addi	a4,a5,1
    50203f8a:	fee43423          	sd	a4,-24(s0)
    50203f8e:	fd744703          	lbu	a4,-41(s0)
    50203f92:	00e78023          	sb	a4,0(a5)
    50203f96:	fd042783          	lw	a5,-48(s0)
    50203f9a:	37fd                	addiw	a5,a5,-1
    50203f9c:	fcf42823          	sw	a5,-48(s0)
    50203fa0:	fd042783          	lw	a5,-48(s0)
    50203fa4:	2781                	sext.w	a5,a5
    50203fa6:	fff1                	bnez	a5,50203f82 <memset+0x22>
    50203fa8:	0001                	nop
    50203faa:	0001                	nop
    50203fac:	7422                	ld	s0,40(sp)
    50203fae:	6145                	addi	sp,sp,48
    50203fb0:	8082                	ret

0000000050203fb2 <bzero>:
    50203fb2:	1101                	addi	sp,sp,-32
    50203fb4:	ec06                	sd	ra,24(sp)
    50203fb6:	e822                	sd	s0,16(sp)
    50203fb8:	1000                	addi	s0,sp,32
    50203fba:	fea43423          	sd	a0,-24(s0)
    50203fbe:	87ae                	mv	a5,a1
    50203fc0:	fef42223          	sw	a5,-28(s0)
    50203fc4:	fe442783          	lw	a5,-28(s0)
    50203fc8:	863e                	mv	a2,a5
    50203fca:	4581                	li	a1,0
    50203fcc:	fe843503          	ld	a0,-24(s0)
    50203fd0:	f91ff0ef          	jal	ra,50203f60 <memset>
    50203fd4:	0001                	nop
    50203fd6:	60e2                	ld	ra,24(sp)
    50203fd8:	6442                	ld	s0,16(sp)
    50203fda:	6105                	addi	sp,sp,32
    50203fdc:	8082                	ret

0000000050203fde <strcmp>:
    50203fde:	1101                	addi	sp,sp,-32
    50203fe0:	ec22                	sd	s0,24(sp)
    50203fe2:	1000                	addi	s0,sp,32
    50203fe4:	fea43423          	sd	a0,-24(s0)
    50203fe8:	feb43023          	sd	a1,-32(s0)
    50203fec:	a0a1                	j	50204034 <strcmp+0x56>
    50203fee:	fe843783          	ld	a5,-24(s0)
    50203ff2:	0007c703          	lbu	a4,0(a5)
    50203ff6:	fe043783          	ld	a5,-32(s0)
    50203ffa:	0007c783          	lbu	a5,0(a5)
    50203ffe:	02f70163          	beq	a4,a5,50204020 <strcmp+0x42>
    50204002:	fe843783          	ld	a5,-24(s0)
    50204006:	0007c783          	lbu	a5,0(a5)
    5020400a:	0007871b          	sext.w	a4,a5
    5020400e:	fe043783          	ld	a5,-32(s0)
    50204012:	0007c783          	lbu	a5,0(a5)
    50204016:	2781                	sext.w	a5,a5
    50204018:	40f707bb          	subw	a5,a4,a5
    5020401c:	2781                	sext.w	a5,a5
    5020401e:	a099                	j	50204064 <strcmp+0x86>
    50204020:	fe843783          	ld	a5,-24(s0)
    50204024:	0785                	addi	a5,a5,1
    50204026:	fef43423          	sd	a5,-24(s0)
    5020402a:	fe043783          	ld	a5,-32(s0)
    5020402e:	0785                	addi	a5,a5,1
    50204030:	fef43023          	sd	a5,-32(s0)
    50204034:	fe843783          	ld	a5,-24(s0)
    50204038:	0007c783          	lbu	a5,0(a5)
    5020403c:	c791                	beqz	a5,50204048 <strcmp+0x6a>
    5020403e:	fe043783          	ld	a5,-32(s0)
    50204042:	0007c783          	lbu	a5,0(a5)
    50204046:	f7c5                	bnez	a5,50203fee <strcmp+0x10>
    50204048:	fe843783          	ld	a5,-24(s0)
    5020404c:	0007c783          	lbu	a5,0(a5)
    50204050:	0007871b          	sext.w	a4,a5
    50204054:	fe043783          	ld	a5,-32(s0)
    50204058:	0007c783          	lbu	a5,0(a5)
    5020405c:	2781                	sext.w	a5,a5
    5020405e:	40f707bb          	subw	a5,a4,a5
    50204062:	2781                	sext.w	a5,a5
    50204064:	853e                	mv	a0,a5
    50204066:	6462                	ld	s0,24(sp)
    50204068:	6105                	addi	sp,sp,32
    5020406a:	8082                	ret

000000005020406c <strcpy>:
    5020406c:	7179                	addi	sp,sp,-48
    5020406e:	f422                	sd	s0,40(sp)
    50204070:	1800                	addi	s0,sp,48
    50204072:	fca43c23          	sd	a0,-40(s0)
    50204076:	fcb43823          	sd	a1,-48(s0)
    5020407a:	fd843783          	ld	a5,-40(s0)
    5020407e:	fef43423          	sd	a5,-24(s0)
    50204082:	a00d                	j	502040a4 <strcpy+0x38>
    50204084:	fd043703          	ld	a4,-48(s0)
    50204088:	00170793          	addi	a5,a4,1
    5020408c:	fcf43823          	sd	a5,-48(s0)
    50204090:	fd843783          	ld	a5,-40(s0)
    50204094:	00178693          	addi	a3,a5,1
    50204098:	fcd43c23          	sd	a3,-40(s0)
    5020409c:	00074703          	lbu	a4,0(a4)
    502040a0:	00e78023          	sb	a4,0(a5)
    502040a4:	fd043783          	ld	a5,-48(s0)
    502040a8:	0007c783          	lbu	a5,0(a5)
    502040ac:	ffe1                	bnez	a5,50204084 <strcpy+0x18>
    502040ae:	fd843783          	ld	a5,-40(s0)
    502040b2:	00078023          	sb	zero,0(a5)
    502040b6:	fe843783          	ld	a5,-24(s0)
    502040ba:	853e                	mv	a0,a5
    502040bc:	7422                	ld	s0,40(sp)
    502040be:	6145                	addi	sp,sp,48
    502040c0:	8082                	ret

00000000502040c2 <strcat>:
    502040c2:	7179                	addi	sp,sp,-48
    502040c4:	f422                	sd	s0,40(sp)
    502040c6:	1800                	addi	s0,sp,48
    502040c8:	fca43c23          	sd	a0,-40(s0)
    502040cc:	fcb43823          	sd	a1,-48(s0)
    502040d0:	fd843783          	ld	a5,-40(s0)
    502040d4:	fef43423          	sd	a5,-24(s0)
    502040d8:	a031                	j	502040e4 <strcat+0x22>
    502040da:	fd843783          	ld	a5,-40(s0)
    502040de:	0785                	addi	a5,a5,1
    502040e0:	fcf43c23          	sd	a5,-40(s0)
    502040e4:	fd843783          	ld	a5,-40(s0)
    502040e8:	0007c783          	lbu	a5,0(a5)
    502040ec:	f7fd                	bnez	a5,502040da <strcat+0x18>
    502040ee:	a00d                	j	50204110 <strcat+0x4e>
    502040f0:	fd043703          	ld	a4,-48(s0)
    502040f4:	00170793          	addi	a5,a4,1
    502040f8:	fcf43823          	sd	a5,-48(s0)
    502040fc:	fd843783          	ld	a5,-40(s0)
    50204100:	00178693          	addi	a3,a5,1
    50204104:	fcd43c23          	sd	a3,-40(s0)
    50204108:	00074703          	lbu	a4,0(a4)
    5020410c:	00e78023          	sb	a4,0(a5)
    50204110:	fd043783          	ld	a5,-48(s0)
    50204114:	0007c783          	lbu	a5,0(a5)
    50204118:	ffe1                	bnez	a5,502040f0 <strcat+0x2e>
    5020411a:	fd843783          	ld	a5,-40(s0)
    5020411e:	00078023          	sb	zero,0(a5)
    50204122:	fe843783          	ld	a5,-24(s0)
    50204126:	853e                	mv	a0,a5
    50204128:	7422                	ld	s0,40(sp)
    5020412a:	6145                	addi	sp,sp,48
    5020412c:	8082                	ret

000000005020412e <mthread_mutex_init>:
    5020412e:	1101                	addi	sp,sp,-32
    50204130:	ec06                	sd	ra,24(sp)
    50204132:	e822                	sd	s0,16(sp)
    50204134:	1000                	addi	s0,sp,32
    50204136:	fea43423          	sd	a0,-24(s0)
    5020413a:	fe843503          	ld	a0,-24(s0)
    5020413e:	058000ef          	jal	ra,50204196 <mutex_get>
    50204142:	4781                	li	a5,0
    50204144:	853e                	mv	a0,a5
    50204146:	60e2                	ld	ra,24(sp)
    50204148:	6442                	ld	s0,16(sp)
    5020414a:	6105                	addi	sp,sp,32
    5020414c:	8082                	ret

000000005020414e <mthread_mutex_lock>:
    5020414e:	1101                	addi	sp,sp,-32
    50204150:	ec06                	sd	ra,24(sp)
    50204152:	e822                	sd	s0,16(sp)
    50204154:	1000                	addi	s0,sp,32
    50204156:	fea43423          	sd	a0,-24(s0)
    5020415a:	fe843783          	ld	a5,-24(s0)
    5020415e:	439c                	lw	a5,0(a5)
    50204160:	853e                	mv	a0,a5
    50204162:	05e000ef          	jal	ra,502041c0 <mutex_block>
    50204166:	4781                	li	a5,0
    50204168:	853e                	mv	a0,a5
    5020416a:	60e2                	ld	ra,24(sp)
    5020416c:	6442                	ld	s0,16(sp)
    5020416e:	6105                	addi	sp,sp,32
    50204170:	8082                	ret

0000000050204172 <mthread_mutex_unlock>:
    50204172:	1101                	addi	sp,sp,-32
    50204174:	ec06                	sd	ra,24(sp)
    50204176:	e822                	sd	s0,16(sp)
    50204178:	1000                	addi	s0,sp,32
    5020417a:	fea43423          	sd	a0,-24(s0)
    5020417e:	fe843783          	ld	a5,-24(s0)
    50204182:	439c                	lw	a5,0(a5)
    50204184:	853e                	mv	a0,a5
    50204186:	062000ef          	jal	ra,502041e8 <mutex_unlock>
    5020418a:	4781                	li	a5,0
    5020418c:	853e                	mv	a0,a5
    5020418e:	60e2                	ld	ra,24(sp)
    50204190:	6442                	ld	s0,16(sp)
    50204192:	6105                	addi	sp,sp,32
    50204194:	8082                	ret

0000000050204196 <mutex_get>:
    50204196:	1101                	addi	sp,sp,-32
    50204198:	ec06                	sd	ra,24(sp)
    5020419a:	e822                	sd	s0,16(sp)
    5020419c:	1000                	addi	s0,sp,32
    5020419e:	fea43423          	sd	a0,-24(s0)
    502041a2:	fe843783          	ld	a5,-24(s0)
    502041a6:	4681                	li	a3,0
    502041a8:	4601                	li	a2,0
    502041aa:	85be                	mv	a1,a5
    502041ac:	4521                	li	a0,8
    502041ae:	37a000ef          	jal	ra,50204528 <invoke_syscall>
    502041b2:	87aa                	mv	a5,a0
    502041b4:	2781                	sext.w	a5,a5
    502041b6:	853e                	mv	a0,a5
    502041b8:	60e2                	ld	ra,24(sp)
    502041ba:	6442                	ld	s0,16(sp)
    502041bc:	6105                	addi	sp,sp,32
    502041be:	8082                	ret

00000000502041c0 <mutex_block>:
    502041c0:	1101                	addi	sp,sp,-32
    502041c2:	ec06                	sd	ra,24(sp)
    502041c4:	e822                	sd	s0,16(sp)
    502041c6:	1000                	addi	s0,sp,32
    502041c8:	87aa                	mv	a5,a0
    502041ca:	fef42623          	sw	a5,-20(s0)
    502041ce:	fec42783          	lw	a5,-20(s0)
    502041d2:	4681                	li	a3,0
    502041d4:	4601                	li	a2,0
    502041d6:	85be                	mv	a1,a5
    502041d8:	4525                	li	a0,9
    502041da:	34e000ef          	jal	ra,50204528 <invoke_syscall>
    502041de:	0001                	nop
    502041e0:	60e2                	ld	ra,24(sp)
    502041e2:	6442                	ld	s0,16(sp)
    502041e4:	6105                	addi	sp,sp,32
    502041e6:	8082                	ret

00000000502041e8 <mutex_unlock>:
    502041e8:	1101                	addi	sp,sp,-32
    502041ea:	ec06                	sd	ra,24(sp)
    502041ec:	e822                	sd	s0,16(sp)
    502041ee:	1000                	addi	s0,sp,32
    502041f0:	87aa                	mv	a5,a0
    502041f2:	fef42623          	sw	a5,-20(s0)
    502041f6:	fec42783          	lw	a5,-20(s0)
    502041fa:	4681                	li	a3,0
    502041fc:	4601                	li	a2,0
    502041fe:	85be                	mv	a1,a5
    50204200:	4529                	li	a0,10
    50204202:	326000ef          	jal	ra,50204528 <invoke_syscall>
    50204206:	0001                	nop
    50204208:	60e2                	ld	ra,24(sp)
    5020420a:	6442                	ld	s0,16(sp)
    5020420c:	6105                	addi	sp,sp,32
    5020420e:	8082                	ret

0000000050204210 <mthread_barrier_init>:
    50204210:	1101                	addi	sp,sp,-32
    50204212:	ec22                	sd	s0,24(sp)
    50204214:	1000                	addi	s0,sp,32
    50204216:	fea43423          	sd	a0,-24(s0)
    5020421a:	87ae                	mv	a5,a1
    5020421c:	fef42223          	sw	a5,-28(s0)
    50204220:	0001                	nop
    50204222:	853e                	mv	a0,a5
    50204224:	6462                	ld	s0,24(sp)
    50204226:	6105                	addi	sp,sp,32
    50204228:	8082                	ret

000000005020422a <mthread_barrier_wait>:
    5020422a:	1101                	addi	sp,sp,-32
    5020422c:	ec22                	sd	s0,24(sp)
    5020422e:	1000                	addi	s0,sp,32
    50204230:	fea43423          	sd	a0,-24(s0)
    50204234:	0001                	nop
    50204236:	853e                	mv	a0,a5
    50204238:	6462                	ld	s0,24(sp)
    5020423a:	6105                	addi	sp,sp,32
    5020423c:	8082                	ret

000000005020423e <mthread_barrier_destroy>:
    5020423e:	1101                	addi	sp,sp,-32
    50204240:	ec22                	sd	s0,24(sp)
    50204242:	1000                	addi	s0,sp,32
    50204244:	fea43423          	sd	a0,-24(s0)
    50204248:	0001                	nop
    5020424a:	853e                	mv	a0,a5
    5020424c:	6462                	ld	s0,24(sp)
    5020424e:	6105                	addi	sp,sp,32
    50204250:	8082                	ret

0000000050204252 <mthread_semaphore_init>:
    50204252:	1101                	addi	sp,sp,-32
    50204254:	ec22                	sd	s0,24(sp)
    50204256:	1000                	addi	s0,sp,32
    50204258:	fea43423          	sd	a0,-24(s0)
    5020425c:	87ae                	mv	a5,a1
    5020425e:	fef42223          	sw	a5,-28(s0)
    50204262:	0001                	nop
    50204264:	853e                	mv	a0,a5
    50204266:	6462                	ld	s0,24(sp)
    50204268:	6105                	addi	sp,sp,32
    5020426a:	8082                	ret

000000005020426c <mthread_semaphore_up>:
    5020426c:	1101                	addi	sp,sp,-32
    5020426e:	ec22                	sd	s0,24(sp)
    50204270:	1000                	addi	s0,sp,32
    50204272:	fea43423          	sd	a0,-24(s0)
    50204276:	0001                	nop
    50204278:	853e                	mv	a0,a5
    5020427a:	6462                	ld	s0,24(sp)
    5020427c:	6105                	addi	sp,sp,32
    5020427e:	8082                	ret

0000000050204280 <mthread_semaphore_down>:
    50204280:	1101                	addi	sp,sp,-32
    50204282:	ec22                	sd	s0,24(sp)
    50204284:	1000                	addi	s0,sp,32
    50204286:	fea43423          	sd	a0,-24(s0)
    5020428a:	0001                	nop
    5020428c:	853e                	mv	a0,a5
    5020428e:	6462                	ld	s0,24(sp)
    50204290:	6105                	addi	sp,sp,32
    50204292:	8082                	ret

0000000050204294 <mthread_semaphore_destroy>:
    50204294:	1101                	addi	sp,sp,-32
    50204296:	ec22                	sd	s0,24(sp)
    50204298:	1000                	addi	s0,sp,32
    5020429a:	fea43423          	sd	a0,-24(s0)
    5020429e:	0001                	nop
    502042a0:	853e                	mv	a0,a5
    502042a2:	6462                	ld	s0,24(sp)
    502042a4:	6105                	addi	sp,sp,32
    502042a6:	8082                	ret

00000000502042a8 <sys_sleep>:
    502042a8:	1101                	addi	sp,sp,-32
    502042aa:	ec06                	sd	ra,24(sp)
    502042ac:	e822                	sd	s0,16(sp)
    502042ae:	1000                	addi	s0,sp,32
    502042b0:	87aa                	mv	a5,a0
    502042b2:	fef42623          	sw	a5,-20(s0)
    502042b6:	fec46783          	lwu	a5,-20(s0)
    502042ba:	4681                	li	a3,0
    502042bc:	4601                	li	a2,0
    502042be:	85be                	mv	a1,a5
    502042c0:	4509                	li	a0,2
    502042c2:	266000ef          	jal	ra,50204528 <invoke_syscall>
    502042c6:	0001                	nop
    502042c8:	60e2                	ld	ra,24(sp)
    502042ca:	6442                	ld	s0,16(sp)
    502042cc:	6105                	addi	sp,sp,32
    502042ce:	8082                	ret

00000000502042d0 <sys_write>:
    502042d0:	1101                	addi	sp,sp,-32
    502042d2:	ec06                	sd	ra,24(sp)
    502042d4:	e822                	sd	s0,16(sp)
    502042d6:	1000                	addi	s0,sp,32
    502042d8:	fea43423          	sd	a0,-24(s0)
    502042dc:	fe843783          	ld	a5,-24(s0)
    502042e0:	4681                	li	a3,0
    502042e2:	4601                	li	a2,0
    502042e4:	85be                	mv	a1,a5
    502042e6:	4551                	li	a0,20
    502042e8:	240000ef          	jal	ra,50204528 <invoke_syscall>
    502042ec:	0001                	nop
    502042ee:	60e2                	ld	ra,24(sp)
    502042f0:	6442                	ld	s0,16(sp)
    502042f2:	6105                	addi	sp,sp,32
    502042f4:	8082                	ret

00000000502042f6 <sys_reflush>:
    502042f6:	1141                	addi	sp,sp,-16
    502042f8:	e406                	sd	ra,8(sp)
    502042fa:	e022                	sd	s0,0(sp)
    502042fc:	0800                	addi	s0,sp,16
    502042fe:	4681                	li	a3,0
    50204300:	4601                	li	a2,0
    50204302:	4581                	li	a1,0
    50204304:	455d                	li	a0,23
    50204306:	222000ef          	jal	ra,50204528 <invoke_syscall>
    5020430a:	0001                	nop
    5020430c:	60a2                	ld	ra,8(sp)
    5020430e:	6402                	ld	s0,0(sp)
    50204310:	0141                	addi	sp,sp,16
    50204312:	8082                	ret

0000000050204314 <sys_clear>:
    50204314:	1141                	addi	sp,sp,-16
    50204316:	e406                	sd	ra,8(sp)
    50204318:	e022                	sd	s0,0(sp)
    5020431a:	0800                	addi	s0,sp,16
    5020431c:	4681                	li	a3,0
    5020431e:	4601                	li	a2,0
    50204320:	4581                	li	a1,0
    50204322:	4561                	li	a0,24
    50204324:	204000ef          	jal	ra,50204528 <invoke_syscall>
    50204328:	0001                	nop
    5020432a:	60a2                	ld	ra,8(sp)
    5020432c:	6402                	ld	s0,0(sp)
    5020432e:	0141                	addi	sp,sp,16
    50204330:	8082                	ret

0000000050204332 <sys_move_cursor>:
    50204332:	1101                	addi	sp,sp,-32
    50204334:	ec06                	sd	ra,24(sp)
    50204336:	e822                	sd	s0,16(sp)
    50204338:	1000                	addi	s0,sp,32
    5020433a:	87aa                	mv	a5,a0
    5020433c:	872e                	mv	a4,a1
    5020433e:	fef42623          	sw	a5,-20(s0)
    50204342:	87ba                	mv	a5,a4
    50204344:	fef42423          	sw	a5,-24(s0)
    50204348:	fec42783          	lw	a5,-20(s0)
    5020434c:	fe842703          	lw	a4,-24(s0)
    50204350:	4681                	li	a3,0
    50204352:	863a                	mv	a2,a4
    50204354:	85be                	mv	a1,a5
    50204356:	4559                	li	a0,22
    50204358:	1d0000ef          	jal	ra,50204528 <invoke_syscall>
    5020435c:	0001                	nop
    5020435e:	60e2                	ld	ra,24(sp)
    50204360:	6442                	ld	s0,16(sp)
    50204362:	6105                	addi	sp,sp,32
    50204364:	8082                	ret

0000000050204366 <sys_get_timebase>:
    50204366:	1141                	addi	sp,sp,-16
    50204368:	e406                	sd	ra,8(sp)
    5020436a:	e022                	sd	s0,0(sp)
    5020436c:	0800                	addi	s0,sp,16
    5020436e:	4681                	li	a3,0
    50204370:	4601                	li	a2,0
    50204372:	4581                	li	a1,0
    50204374:	4579                	li	a0,30
    50204376:	1b2000ef          	jal	ra,50204528 <invoke_syscall>
    5020437a:	87aa                	mv	a5,a0
    5020437c:	853e                	mv	a0,a5
    5020437e:	60a2                	ld	ra,8(sp)
    50204380:	6402                	ld	s0,0(sp)
    50204382:	0141                	addi	sp,sp,16
    50204384:	8082                	ret

0000000050204386 <sys_get_tick>:
    50204386:	1141                	addi	sp,sp,-16
    50204388:	e406                	sd	ra,8(sp)
    5020438a:	e022                	sd	s0,0(sp)
    5020438c:	0800                	addi	s0,sp,16
    5020438e:	4681                	li	a3,0
    50204390:	4601                	li	a2,0
    50204392:	4581                	li	a1,0
    50204394:	457d                	li	a0,31
    50204396:	192000ef          	jal	ra,50204528 <invoke_syscall>
    5020439a:	87aa                	mv	a5,a0
    5020439c:	853e                	mv	a0,a5
    5020439e:	60a2                	ld	ra,8(sp)
    502043a0:	6402                	ld	s0,0(sp)
    502043a2:	0141                	addi	sp,sp,16
    502043a4:	8082                	ret

00000000502043a6 <sys_yield>:
    502043a6:	1141                	addi	sp,sp,-16
    502043a8:	e406                	sd	ra,8(sp)
    502043aa:	e022                	sd	s0,0(sp)
    502043ac:	0800                	addi	s0,sp,16
    502043ae:	4681                	li	a3,0
    502043b0:	4601                	li	a2,0
    502043b2:	4581                	li	a1,0
    502043b4:	451d                	li	a0,7
    502043b6:	172000ef          	jal	ra,50204528 <invoke_syscall>
    502043ba:	0001                	nop
    502043bc:	60a2                	ld	ra,8(sp)
    502043be:	6402                	ld	s0,0(sp)
    502043c0:	0141                	addi	sp,sp,16
    502043c2:	8082                	ret

00000000502043c4 <sys_getchar>:
    502043c4:	1141                	addi	sp,sp,-16
    502043c6:	e406                	sd	ra,8(sp)
    502043c8:	e022                	sd	s0,0(sp)
    502043ca:	0800                	addi	s0,sp,16
    502043cc:	4681                	li	a3,0
    502043ce:	4601                	li	a2,0
    502043d0:	4581                	li	a1,0
    502043d2:	4531                	li	a0,12
    502043d4:	154000ef          	jal	ra,50204528 <invoke_syscall>
    502043d8:	87aa                	mv	a5,a0
    502043da:	2781                	sext.w	a5,a5
    502043dc:	853e                	mv	a0,a5
    502043de:	60a2                	ld	ra,8(sp)
    502043e0:	6402                	ld	s0,0(sp)
    502043e2:	0141                	addi	sp,sp,16
    502043e4:	8082                	ret

00000000502043e6 <sys_prior>:
    502043e6:	1101                	addi	sp,sp,-32
    502043e8:	ec06                	sd	ra,24(sp)
    502043ea:	e822                	sd	s0,16(sp)
    502043ec:	1000                	addi	s0,sp,32
    502043ee:	87aa                	mv	a5,a0
    502043f0:	fef42623          	sw	a5,-20(s0)
    502043f4:	fec42783          	lw	a5,-20(s0)
    502043f8:	4681                	li	a3,0
    502043fa:	4601                	li	a2,0
    502043fc:	85be                	mv	a1,a5
    502043fe:	4535                	li	a0,13
    50204400:	128000ef          	jal	ra,50204528 <invoke_syscall>
    50204404:	0001                	nop
    50204406:	60e2                	ld	ra,24(sp)
    50204408:	6442                	ld	s0,16(sp)
    5020440a:	6105                	addi	sp,sp,32
    5020440c:	8082                	ret

000000005020440e <sys_get_wall_time>:
    5020440e:	1101                	addi	sp,sp,-32
    50204410:	ec06                	sd	ra,24(sp)
    50204412:	e822                	sd	s0,16(sp)
    50204414:	1000                	addi	s0,sp,32
    50204416:	fea43423          	sd	a0,-24(s0)
    5020441a:	fe843783          	ld	a5,-24(s0)
    5020441e:	4681                	li	a3,0
    50204420:	4601                	li	a2,0
    50204422:	85be                	mv	a1,a5
    50204424:	4575                	li	a0,29
    50204426:	102000ef          	jal	ra,50204528 <invoke_syscall>
    5020442a:	87aa                	mv	a5,a0
    5020442c:	2781                	sext.w	a5,a5
    5020442e:	853e                	mv	a0,a5
    50204430:	60e2                	ld	ra,24(sp)
    50204432:	6442                	ld	s0,16(sp)
    50204434:	6105                	addi	sp,sp,32
    50204436:	8082                	ret

0000000050204438 <sys_ps>:
    50204438:	1141                	addi	sp,sp,-16
    5020443a:	e406                	sd	ra,8(sp)
    5020443c:	e022                	sd	s0,0(sp)
    5020443e:	0800                	addi	s0,sp,16
    50204440:	4681                	li	a3,0
    50204442:	4601                	li	a2,0
    50204444:	4581                	li	a1,0
    50204446:	4539                	li	a0,14
    50204448:	0e0000ef          	jal	ra,50204528 <invoke_syscall>
    5020444c:	0001                	nop
    5020444e:	60a2                	ld	ra,8(sp)
    50204450:	6402                	ld	s0,0(sp)
    50204452:	0141                	addi	sp,sp,16
    50204454:	8082                	ret

0000000050204456 <sys_spawn>:
    50204456:	7179                	addi	sp,sp,-48
    50204458:	f406                	sd	ra,40(sp)
    5020445a:	f022                	sd	s0,32(sp)
    5020445c:	1800                	addi	s0,sp,48
    5020445e:	fea43423          	sd	a0,-24(s0)
    50204462:	feb43023          	sd	a1,-32(s0)
    50204466:	87b2                	mv	a5,a2
    50204468:	fcf42e23          	sw	a5,-36(s0)
    5020446c:	fe843783          	ld	a5,-24(s0)
    50204470:	fe043703          	ld	a4,-32(s0)
    50204474:	fdc46683          	lwu	a3,-36(s0)
    50204478:	863a                	mv	a2,a4
    5020447a:	85be                	mv	a1,a5
    5020447c:	453d                	li	a0,15
    5020447e:	0aa000ef          	jal	ra,50204528 <invoke_syscall>
    50204482:	87aa                	mv	a5,a0
    50204484:	2781                	sext.w	a5,a5
    50204486:	853e                	mv	a0,a5
    50204488:	70a2                	ld	ra,40(sp)
    5020448a:	7402                	ld	s0,32(sp)
    5020448c:	6145                	addi	sp,sp,48
    5020448e:	8082                	ret

0000000050204490 <sys_kill>:
    50204490:	1101                	addi	sp,sp,-32
    50204492:	ec06                	sd	ra,24(sp)
    50204494:	e822                	sd	s0,16(sp)
    50204496:	1000                	addi	s0,sp,32
    50204498:	87aa                	mv	a5,a0
    5020449a:	fef42623          	sw	a5,-20(s0)
    5020449e:	fec42783          	lw	a5,-20(s0)
    502044a2:	4681                	li	a3,0
    502044a4:	4601                	li	a2,0
    502044a6:	85be                	mv	a1,a5
    502044a8:	4541                	li	a0,16
    502044aa:	07e000ef          	jal	ra,50204528 <invoke_syscall>
    502044ae:	87aa                	mv	a5,a0
    502044b0:	2781                	sext.w	a5,a5
    502044b2:	853e                	mv	a0,a5
    502044b4:	60e2                	ld	ra,24(sp)
    502044b6:	6442                	ld	s0,16(sp)
    502044b8:	6105                	addi	sp,sp,32
    502044ba:	8082                	ret

00000000502044bc <sys_exit>:
    502044bc:	1141                	addi	sp,sp,-16
    502044be:	e406                	sd	ra,8(sp)
    502044c0:	e022                	sd	s0,0(sp)
    502044c2:	0800                	addi	s0,sp,16
    502044c4:	4681                	li	a3,0
    502044c6:	4601                	li	a2,0
    502044c8:	4581                	li	a1,0
    502044ca:	4545                	li	a0,17
    502044cc:	05c000ef          	jal	ra,50204528 <invoke_syscall>
    502044d0:	0001                	nop
    502044d2:	60a2                	ld	ra,8(sp)
    502044d4:	6402                	ld	s0,0(sp)
    502044d6:	0141                	addi	sp,sp,16
    502044d8:	8082                	ret

00000000502044da <sys_waitpid>:
    502044da:	1101                	addi	sp,sp,-32
    502044dc:	ec06                	sd	ra,24(sp)
    502044de:	e822                	sd	s0,16(sp)
    502044e0:	1000                	addi	s0,sp,32
    502044e2:	87aa                	mv	a5,a0
    502044e4:	fef42623          	sw	a5,-20(s0)
    502044e8:	fec42783          	lw	a5,-20(s0)
    502044ec:	4681                	li	a3,0
    502044ee:	4601                	li	a2,0
    502044f0:	85be                	mv	a1,a5
    502044f2:	4549                	li	a0,18
    502044f4:	034000ef          	jal	ra,50204528 <invoke_syscall>
    502044f8:	87aa                	mv	a5,a0
    502044fa:	2781                	sext.w	a5,a5
    502044fc:	853e                	mv	a0,a5
    502044fe:	60e2                	ld	ra,24(sp)
    50204500:	6442                	ld	s0,16(sp)
    50204502:	6105                	addi	sp,sp,32
    50204504:	8082                	ret

0000000050204506 <sys_getpid>:
    50204506:	1141                	addi	sp,sp,-16
    50204508:	e406                	sd	ra,8(sp)
    5020450a:	e022                	sd	s0,0(sp)
    5020450c:	0800                	addi	s0,sp,16
    5020450e:	4681                	li	a3,0
    50204510:	4601                	li	a2,0
    50204512:	4581                	li	a1,0
    50204514:	454d                	li	a0,19
    50204516:	012000ef          	jal	ra,50204528 <invoke_syscall>
    5020451a:	87aa                	mv	a5,a0
    5020451c:	2781                	sext.w	a5,a5
    5020451e:	853e                	mv	a0,a5
    50204520:	60a2                	ld	ra,8(sp)
    50204522:	6402                	ld	s0,0(sp)
    50204524:	0141                	addi	sp,sp,16
    50204526:	8082                	ret

0000000050204528 <invoke_syscall>:
    50204528:	88aa                	mv	a7,a0
    5020452a:	852e                	mv	a0,a1
    5020452c:	85b2                	mv	a1,a2
    5020452e:	8636                	mv	a2,a3
    50204530:	00000073          	ecall
    50204534:	8082                	ret

0000000050204536 <clock>:
    50204536:	1141                	addi	sp,sp,-16
    50204538:	e406                	sd	ra,8(sp)
    5020453a:	e022                	sd	s0,0(sp)
    5020453c:	0800                	addi	s0,sp,16
    5020453e:	e49ff0ef          	jal	ra,50204386 <sys_get_tick>
    50204542:	87aa                	mv	a5,a0
    50204544:	853e                	mv	a0,a5
    50204546:	60a2                	ld	ra,8(sp)
    50204548:	6402                	ld	s0,0(sp)
    5020454a:	0141                	addi	sp,sp,16
    5020454c:	8082                	ret

000000005020454e <srand>:
    5020454e:	1101                	addi	sp,sp,-32
    50204550:	ec22                	sd	s0,24(sp)
    50204552:	1000                	addi	s0,sp,32
    50204554:	87aa                	mv	a5,a0
    50204556:	fef42623          	sw	a5,-20(s0)
    5020455a:	fec42703          	lw	a4,-20(s0)
    5020455e:	00005797          	auipc	a5,0x5
    50204562:	b6278793          	addi	a5,a5,-1182 # 502090c0 <x>
    50204566:	c398                	sw	a4,0(a5)
    50204568:	0001                	nop
    5020456a:	6462                	ld	s0,24(sp)
    5020456c:	6105                	addi	sp,sp,32
    5020456e:	8082                	ret

0000000050204570 <rand>:
    50204570:	1101                	addi	sp,sp,-32
    50204572:	ec22                	sd	s0,24(sp)
    50204574:	1000                	addi	s0,sp,32
    50204576:	00005797          	auipc	a5,0x5
    5020457a:	b4a78793          	addi	a5,a5,-1206 # 502090c0 <x>
    5020457e:	439c                	lw	a5,0(a5)
    50204580:	873e                	mv	a4,a5
    50204582:	00002797          	auipc	a5,0x2
    50204586:	8ee78793          	addi	a5,a5,-1810 # 50205e70 <__FUNCTION__.1433+0x188>
    5020458a:	639c                	ld	a5,0(a5)
    5020458c:	02f707b3          	mul	a5,a4,a5
    50204590:	07ad                	addi	a5,a5,11
    50204592:	fef43423          	sd	a5,-24(s0)
    50204596:	fe843783          	ld	a5,-24(s0)
    5020459a:	0007871b          	sext.w	a4,a5
    5020459e:	800007b7          	lui	a5,0x80000
    502045a2:	fff7c793          	not	a5,a5
    502045a6:	8ff9                	and	a5,a5,a4
    502045a8:	0007871b          	sext.w	a4,a5
    502045ac:	00005797          	auipc	a5,0x5
    502045b0:	b1478793          	addi	a5,a5,-1260 # 502090c0 <x>
    502045b4:	c398                	sw	a4,0(a5)
    502045b6:	00005797          	auipc	a5,0x5
    502045ba:	b0a78793          	addi	a5,a5,-1270 # 502090c0 <x>
    502045be:	439c                	lw	a5,0(a5)
    502045c0:	853e                	mv	a0,a5
    502045c2:	6462                	ld	s0,24(sp)
    502045c4:	6105                	addi	sp,sp,32
    502045c6:	8082                	ret

00000000502045c8 <mbox_open>:
    502045c8:	1101                	addi	sp,sp,-32
    502045ca:	ec22                	sd	s0,24(sp)
    502045cc:	1000                	addi	s0,sp,32
    502045ce:	fea43423          	sd	a0,-24(s0)
    502045d2:	0001                	nop
    502045d4:	853e                	mv	a0,a5
    502045d6:	6462                	ld	s0,24(sp)
    502045d8:	6105                	addi	sp,sp,32
    502045da:	8082                	ret

00000000502045dc <mbox_close>:
    502045dc:	1101                	addi	sp,sp,-32
    502045de:	ec22                	sd	s0,24(sp)
    502045e0:	1000                	addi	s0,sp,32
    502045e2:	87aa                	mv	a5,a0
    502045e4:	fef42623          	sw	a5,-20(s0)
    502045e8:	0001                	nop
    502045ea:	6462                	ld	s0,24(sp)
    502045ec:	6105                	addi	sp,sp,32
    502045ee:	8082                	ret

00000000502045f0 <mbox_send>:
    502045f0:	1101                	addi	sp,sp,-32
    502045f2:	ec22                	sd	s0,24(sp)
    502045f4:	1000                	addi	s0,sp,32
    502045f6:	87aa                	mv	a5,a0
    502045f8:	feb43023          	sd	a1,-32(s0)
    502045fc:	8732                	mv	a4,a2
    502045fe:	fef42623          	sw	a5,-20(s0)
    50204602:	87ba                	mv	a5,a4
    50204604:	fef42423          	sw	a5,-24(s0)
    50204608:	0001                	nop
    5020460a:	853e                	mv	a0,a5
    5020460c:	6462                	ld	s0,24(sp)
    5020460e:	6105                	addi	sp,sp,32
    50204610:	8082                	ret

0000000050204612 <mbox_recv>:
    50204612:	1101                	addi	sp,sp,-32
    50204614:	ec22                	sd	s0,24(sp)
    50204616:	1000                	addi	s0,sp,32
    50204618:	87aa                	mv	a5,a0
    5020461a:	feb43023          	sd	a1,-32(s0)
    5020461e:	8732                	mv	a4,a2
    50204620:	fef42623          	sw	a5,-20(s0)
    50204624:	87ba                	mv	a5,a4
    50204626:	fef42423          	sw	a5,-24(s0)
    5020462a:	0001                	nop
    5020462c:	853e                	mv	a0,a5
    5020462e:	6462                	ld	s0,24(sp)
    50204630:	6105                	addi	sp,sp,32
    50204632:	8082                	ret

0000000050204634 <parse_id>:
    50204634:	7179                	addi	sp,sp,-48
    50204636:	f422                	sd	s0,40(sp)
    50204638:	1800                	addi	s0,sp,48
    5020463a:	fca43c23          	sd	a0,-40(s0)
    5020463e:	fe042623          	sw	zero,-20(s0)
    50204642:	fe042423          	sw	zero,-24(s0)
    50204646:	a0b5                	j	502046b2 <parse_id+0x7e>
    50204648:	fe842783          	lw	a5,-24(s0)
    5020464c:	fd843703          	ld	a4,-40(s0)
    50204650:	97ba                	add	a5,a5,a4
    50204652:	0007c783          	lbu	a5,0(a5)
    50204656:	873e                	mv	a4,a5
    50204658:	02f00793          	li	a5,47
    5020465c:	00e7ee63          	bltu	a5,a4,50204678 <parse_id+0x44>
    50204660:	fe842783          	lw	a5,-24(s0)
    50204664:	fd843703          	ld	a4,-40(s0)
    50204668:	97ba                	add	a5,a5,a4
    5020466a:	0007c783          	lbu	a5,0(a5)
    5020466e:	873e                	mv	a4,a5
    50204670:	03900793          	li	a5,57
    50204674:	02e7ea63          	bltu	a5,a4,502046a8 <parse_id+0x74>
    50204678:	fec42703          	lw	a4,-20(s0)
    5020467c:	87ba                	mv	a5,a4
    5020467e:	0027979b          	slliw	a5,a5,0x2
    50204682:	9fb9                	addw	a5,a5,a4
    50204684:	0017979b          	slliw	a5,a5,0x1
    50204688:	0007871b          	sext.w	a4,a5
    5020468c:	fe842783          	lw	a5,-24(s0)
    50204690:	fd843683          	ld	a3,-40(s0)
    50204694:	97b6                	add	a5,a5,a3
    50204696:	0007c783          	lbu	a5,0(a5)
    5020469a:	2781                	sext.w	a5,a5
    5020469c:	9fb9                	addw	a5,a5,a4
    5020469e:	2781                	sext.w	a5,a5
    502046a0:	fd07879b          	addiw	a5,a5,-48
    502046a4:	fef42623          	sw	a5,-20(s0)
    502046a8:	fe842783          	lw	a5,-24(s0)
    502046ac:	2785                	addiw	a5,a5,1
    502046ae:	fef42423          	sw	a5,-24(s0)
    502046b2:	fe842783          	lw	a5,-24(s0)
    502046b6:	fd843703          	ld	a4,-40(s0)
    502046ba:	97ba                	add	a5,a5,a4
    502046bc:	0007c783          	lbu	a5,0(a5)
    502046c0:	873e                	mv	a4,a5
    502046c2:	47a9                	li	a5,10
    502046c4:	f8f712e3          	bne	a4,a5,50204648 <parse_id+0x14>
    502046c8:	fec42783          	lw	a5,-20(s0)
    502046cc:	853e                	mv	a0,a5
    502046ce:	7422                	ld	s0,40(sp)
    502046d0:	6145                	addi	sp,sp,48
    502046d2:	8082                	ret

00000000502046d4 <shell_clear>:
    502046d4:	1141                	addi	sp,sp,-16
    502046d6:	e406                	sd	ra,8(sp)
    502046d8:	e022                	sd	s0,0(sp)
    502046da:	0800                	addi	s0,sp,16
    502046dc:	c39ff0ef          	jal	ra,50204314 <sys_clear>
    502046e0:	45e5                	li	a1,25
    502046e2:	4505                	li	a0,1
    502046e4:	c4fff0ef          	jal	ra,50204332 <sys_move_cursor>
    502046e8:	00001517          	auipc	a0,0x1
    502046ec:	79050513          	addi	a0,a0,1936 # 50205e78 <__FUNCTION__.1433+0x190>
    502046f0:	f90ff0ef          	jal	ra,50203e80 <printf>
    502046f4:	0001                	nop
    502046f6:	60a2                	ld	ra,8(sp)
    502046f8:	6402                	ld	s0,0(sp)
    502046fa:	0141                	addi	sp,sp,16
    502046fc:	8082                	ret

00000000502046fe <shell_exec>:
    502046fe:	7179                	addi	sp,sp,-48
    50204700:	f406                	sd	ra,40(sp)
    50204702:	f022                	sd	s0,32(sp)
    50204704:	1800                	addi	s0,sp,48
    50204706:	fca43c23          	sd	a0,-40(s0)
    5020470a:	fd843503          	ld	a0,-40(s0)
    5020470e:	f27ff0ef          	jal	ra,50204634 <parse_id>
    50204712:	87aa                	mv	a5,a0
    50204714:	fef42623          	sw	a5,-20(s0)
    50204718:	82818793          	addi	a5,gp,-2008 # 502065a0 <num_test_tasks>
    5020471c:	4398                	lw	a4,0(a5)
    5020471e:	fec42783          	lw	a5,-20(s0)
    50204722:	2781                	sext.w	a5,a5
    50204724:	00f75963          	bge	a4,a5,50204736 <shell_exec+0x38>
    50204728:	00001517          	auipc	a0,0x1
    5020472c:	78850513          	addi	a0,a0,1928 # 50205eb0 <__FUNCTION__.1433+0x1c8>
    50204730:	f50ff0ef          	jal	ra,50203e80 <printf>
    50204734:	a81d                	j	5020476a <shell_exec+0x6c>
    50204736:	00002717          	auipc	a4,0x2
    5020473a:	dc270713          	addi	a4,a4,-574 # 502064f8 <test_tasks>
    5020473e:	fec42783          	lw	a5,-20(s0)
    50204742:	078e                	slli	a5,a5,0x3
    50204744:	97ba                	add	a5,a5,a4
    50204746:	639c                	ld	a5,0(a5)
    50204748:	4601                	li	a2,0
    5020474a:	4581                	li	a1,0
    5020474c:	853e                	mv	a0,a5
    5020474e:	d09ff0ef          	jal	ra,50204456 <sys_spawn>
    50204752:	87aa                	mv	a5,a0
    50204754:	fef42423          	sw	a5,-24(s0)
    50204758:	fe842783          	lw	a5,-24(s0)
    5020475c:	85be                	mv	a1,a5
    5020475e:	00001517          	auipc	a0,0x1
    50204762:	78250513          	addi	a0,a0,1922 # 50205ee0 <__FUNCTION__.1433+0x1f8>
    50204766:	f1aff0ef          	jal	ra,50203e80 <printf>
    5020476a:	70a2                	ld	ra,40(sp)
    5020476c:	7402                	ld	s0,32(sp)
    5020476e:	6145                	addi	sp,sp,48
    50204770:	8082                	ret

0000000050204772 <test_shell>:
    50204772:	7119                	addi	sp,sp,-128
    50204774:	fc86                	sd	ra,120(sp)
    50204776:	f8a2                	sd	s0,112(sp)
    50204778:	0100                	addi	s0,sp,128
    5020477a:	45e5                	li	a1,25
    5020477c:	4505                	li	a0,1
    5020477e:	bb5ff0ef          	jal	ra,50204332 <sys_move_cursor>
    50204782:	00001517          	auipc	a0,0x1
    50204786:	6f650513          	addi	a0,a0,1782 # 50205e78 <__FUNCTION__.1433+0x190>
    5020478a:	ef6ff0ef          	jal	ra,50203e80 <printf>
    5020478e:	00001517          	auipc	a0,0x1
    50204792:	77250513          	addi	a0,a0,1906 # 50205f00 <__FUNCTION__.1433+0x218>
    50204796:	eeaff0ef          	jal	ra,50203e80 <printf>
    5020479a:	b5dff0ef          	jal	ra,502042f6 <sys_reflush>
    5020479e:	fe042623          	sw	zero,-20(s0)
    502047a2:	0001                	nop
    502047a4:	c21ff0ef          	jal	ra,502043c4 <sys_getchar>
    502047a8:	87aa                	mv	a5,a0
    502047aa:	fef405a3          	sb	a5,-21(s0)
    502047ae:	feb44783          	lbu	a5,-21(s0)
    502047b2:	0ff7f713          	andi	a4,a5,255
    502047b6:	0ff00793          	li	a5,255
    502047ba:	fef705e3          	beq	a4,a5,502047a4 <test_shell+0x32>
    502047be:	feb44783          	lbu	a5,-21(s0)
    502047c2:	0ff7f713          	andi	a4,a5,255
    502047c6:	47b5                	li	a5,13
    502047c8:	06f70263          	beq	a4,a5,5020482c <test_shell+0xba>
    502047cc:	fec42783          	lw	a5,-20(s0)
    502047d0:	0007871b          	sext.w	a4,a5
    502047d4:	06300793          	li	a5,99
    502047d8:	04e7ca63          	blt	a5,a4,5020482c <test_shell+0xba>
    502047dc:	feb44783          	lbu	a5,-21(s0)
    502047e0:	0ff7f713          	andi	a4,a5,255
    502047e4:	07f00793          	li	a5,127
    502047e8:	00f70963          	beq	a4,a5,502047fa <test_shell+0x88>
    502047ec:	feb44783          	lbu	a5,-21(s0)
    502047f0:	0ff7f713          	andi	a4,a5,255
    502047f4:	47a1                	li	a5,8
    502047f6:	00f71d63          	bne	a4,a5,50204810 <test_shell+0x9e>
    502047fa:	fec42783          	lw	a5,-20(s0)
    502047fe:	2781                	sext.w	a5,a5
    50204800:	00f05863          	blez	a5,50204810 <test_shell+0x9e>
    50204804:	fec42783          	lw	a5,-20(s0)
    50204808:	37fd                	addiw	a5,a5,-1
    5020480a:	fef42623          	sw	a5,-20(s0)
    5020480e:	a831                	j	5020482a <test_shell+0xb8>
    50204810:	fec42783          	lw	a5,-20(s0)
    50204814:	0017871b          	addiw	a4,a5,1
    50204818:	fee42623          	sw	a4,-20(s0)
    5020481c:	ff040713          	addi	a4,s0,-16
    50204820:	97ba                	add	a5,a5,a4
    50204822:	feb44703          	lbu	a4,-21(s0)
    50204826:	f8e78823          	sb	a4,-112(a5)
    5020482a:	bfa5                	j	502047a2 <test_shell+0x30>
    5020482c:	fec42783          	lw	a5,-20(s0)
    50204830:	0017871b          	addiw	a4,a5,1
    50204834:	fee42623          	sw	a4,-20(s0)
    50204838:	ff040713          	addi	a4,s0,-16
    5020483c:	97ba                	add	a5,a5,a4
    5020483e:	feb44703          	lbu	a4,-21(s0)
    50204842:	f8e78823          	sb	a4,-112(a5)
    50204846:	fec42783          	lw	a5,-20(s0)
    5020484a:	0017871b          	addiw	a4,a5,1
    5020484e:	fee42623          	sw	a4,-20(s0)
    50204852:	ff040713          	addi	a4,s0,-16
    50204856:	97ba                	add	a5,a5,a4
    50204858:	4729                	li	a4,10
    5020485a:	f8e78823          	sb	a4,-112(a5)
    5020485e:	fec42783          	lw	a5,-20(s0)
    50204862:	ff040713          	addi	a4,s0,-16
    50204866:	97ba                	add	a5,a5,a4
    50204868:	f8078823          	sb	zero,-112(a5)
    5020486c:	f8040793          	addi	a5,s0,-128
    50204870:	85be                	mv	a1,a5
    50204872:	00001517          	auipc	a0,0x1
    50204876:	6a650513          	addi	a0,a0,1702 # 50205f18 <__FUNCTION__.1433+0x230>
    5020487a:	e06ff0ef          	jal	ra,50203e80 <printf>
    5020487e:	fe042223          	sw	zero,-28(s0)
    50204882:	f8044783          	lbu	a5,-128(s0)
    50204886:	2781                	sext.w	a5,a5
    50204888:	86be                	mv	a3,a5
    5020488a:	07000713          	li	a4,112
    5020488e:	02e68c63          	beq	a3,a4,502048c6 <test_shell+0x154>
    50204892:	86be                	mv	a3,a5
    50204894:	07000713          	li	a4,112
    50204898:	06d74163          	blt	a4,a3,502048fa <test_shell+0x188>
    5020489c:	86be                	mv	a3,a5
    5020489e:	06b00713          	li	a4,107
    502048a2:	02e68b63          	beq	a3,a4,502048d8 <test_shell+0x166>
    502048a6:	86be                	mv	a3,a5
    502048a8:	06b00713          	li	a4,107
    502048ac:	04d74763          	blt	a4,a3,502048fa <test_shell+0x188>
    502048b0:	86be                	mv	a3,a5
    502048b2:	06300713          	li	a4,99
    502048b6:	02e68f63          	beq	a3,a4,502048f4 <test_shell+0x182>
    502048ba:	873e                	mv	a4,a5
    502048bc:	06500793          	li	a5,101
    502048c0:	00f70663          	beq	a4,a5,502048cc <test_shell+0x15a>
    502048c4:	a81d                	j	502048fa <test_shell+0x188>
    502048c6:	b73ff0ef          	jal	ra,50204438 <sys_ps>
    502048ca:	a83d                	j	50204908 <test_shell+0x196>
    502048cc:	f8040793          	addi	a5,s0,-128
    502048d0:	853e                	mv	a0,a5
    502048d2:	e2dff0ef          	jal	ra,502046fe <shell_exec>
    502048d6:	a80d                	j	50204908 <test_shell+0x196>
    502048d8:	f8040793          	addi	a5,s0,-128
    502048dc:	853e                	mv	a0,a5
    502048de:	d57ff0ef          	jal	ra,50204634 <parse_id>
    502048e2:	87aa                	mv	a5,a0
    502048e4:	fef42223          	sw	a5,-28(s0)
    502048e8:	fe442783          	lw	a5,-28(s0)
    502048ec:	853e                	mv	a0,a5
    502048ee:	ba3ff0ef          	jal	ra,50204490 <sys_kill>
    502048f2:	a819                	j	50204908 <test_shell+0x196>
    502048f4:	de1ff0ef          	jal	ra,502046d4 <shell_clear>
    502048f8:	a801                	j	50204908 <test_shell+0x196>
    502048fa:	00001517          	auipc	a0,0x1
    502048fe:	62650513          	addi	a0,a0,1574 # 50205f20 <__FUNCTION__.1433+0x238>
    50204902:	d7eff0ef          	jal	ra,50203e80 <printf>
    50204906:	0001                	nop
    50204908:	00001517          	auipc	a0,0x1
    5020490c:	5f850513          	addi	a0,a0,1528 # 50205f00 <__FUNCTION__.1433+0x218>
    50204910:	d70ff0ef          	jal	ra,50203e80 <printf>
    50204914:	9e3ff0ef          	jal	ra,502042f6 <sys_reflush>
    50204918:	b559                	j	5020479e <test_shell+0x2c>

000000005020491a <test_affinity>:
    5020491a:	715d                	addi	sp,sp,-80
    5020491c:	e486                	sd	ra,72(sp)
    5020491e:	e0a2                	sd	s0,64(sp)
    50204920:	0880                	addi	s0,sp,80
    50204922:	02a00513          	li	a0,42
    50204926:	c29ff0ef          	jal	ra,5020454e <srand>
    5020492a:	4585                	li	a1,1
    5020492c:	4505                	li	a0,1
    5020492e:	a05ff0ef          	jal	ra,50204332 <sys_move_cursor>
    50204932:	00001517          	auipc	a0,0x1
    50204936:	5fe50513          	addi	a0,a0,1534 # 50205f30 <__FUNCTION__.1433+0x248>
    5020493a:	d46ff0ef          	jal	ra,50203e80 <printf>
    5020493e:	fe042223          	sw	zero,-28(s0)
    50204942:	fc043823          	sd	zero,-48(s0)
    50204946:	fc043c23          	sd	zero,-40(s0)
    5020494a:	00000797          	auipc	a5,0x0
    5020494e:	0d478793          	addi	a5,a5,212 # 50204a1e <integer_test_task>
    50204952:	fcf43823          	sd	a5,-48(s0)
    50204956:	4789                	li	a5,2
    50204958:	fcf42c23          	sw	a5,-40(s0)
    5020495c:	fa043c23          	sd	zero,-72(s0)
    50204960:	fc043023          	sd	zero,-64(s0)
    50204964:	fc042423          	sw	zero,-56(s0)
    50204968:	fe042623          	sw	zero,-20(s0)
    5020496c:	a899                	j	502049c2 <test_affinity+0xa8>
    5020496e:	fec42783          	lw	a5,-20(s0)
    50204972:	2789                	addiw	a5,a5,2
    50204974:	2781                	sext.w	a5,a5
    50204976:	873e                	mv	a4,a5
    50204978:	fd040793          	addi	a5,s0,-48
    5020497c:	4601                	li	a2,0
    5020497e:	85ba                	mv	a1,a4
    50204980:	853e                	mv	a0,a5
    50204982:	ad5ff0ef          	jal	ra,50204456 <sys_spawn>
    50204986:	87aa                	mv	a5,a0
    50204988:	873e                	mv	a4,a5
    5020498a:	fec42783          	lw	a5,-20(s0)
    5020498e:	078a                	slli	a5,a5,0x2
    50204990:	ff040693          	addi	a3,s0,-16
    50204994:	97b6                	add	a5,a5,a3
    50204996:	fce7a423          	sw	a4,-56(a5)
    5020499a:	fec42783          	lw	a5,-20(s0)
    5020499e:	078a                	slli	a5,a5,0x2
    502049a0:	ff040713          	addi	a4,s0,-16
    502049a4:	97ba                	add	a5,a5,a4
    502049a6:	fc87a783          	lw	a5,-56(a5)
    502049aa:	85be                	mv	a1,a5
    502049ac:	00001517          	auipc	a0,0x1
    502049b0:	5ac50513          	addi	a0,a0,1452 # 50205f58 <__FUNCTION__.1433+0x270>
    502049b4:	cccff0ef          	jal	ra,50203e80 <printf>
    502049b8:	fec42783          	lw	a5,-20(s0)
    502049bc:	2785                	addiw	a5,a5,1
    502049be:	fef42623          	sw	a5,-20(s0)
    502049c2:	fec42783          	lw	a5,-20(s0)
    502049c6:	0007871b          	sext.w	a4,a5
    502049ca:	4791                	li	a5,4
    502049cc:	fae7d1e3          	bge	a5,a4,5020496e <test_affinity+0x54>
    502049d0:	00001517          	auipc	a0,0x1
    502049d4:	59050513          	addi	a0,a0,1424 # 50205f60 <__FUNCTION__.1433+0x278>
    502049d8:	ca8ff0ef          	jal	ra,50203e80 <printf>
    502049dc:	fe042423          	sw	zero,-24(s0)
    502049e0:	a00d                	j	50204a02 <test_affinity+0xe8>
    502049e2:	fe842783          	lw	a5,-24(s0)
    502049e6:	078a                	slli	a5,a5,0x2
    502049e8:	ff040713          	addi	a4,s0,-16
    502049ec:	97ba                	add	a5,a5,a4
    502049ee:	fc87a783          	lw	a5,-56(a5)
    502049f2:	853e                	mv	a0,a5
    502049f4:	ae7ff0ef          	jal	ra,502044da <sys_waitpid>
    502049f8:	fe842783          	lw	a5,-24(s0)
    502049fc:	2785                	addiw	a5,a5,1
    502049fe:	fef42423          	sw	a5,-24(s0)
    50204a02:	fe842783          	lw	a5,-24(s0)
    50204a06:	0007871b          	sext.w	a4,a5
    50204a0a:	4791                	li	a5,4
    50204a0c:	fce7dbe3          	bge	a5,a4,502049e2 <test_affinity+0xc8>
    50204a10:	aadff0ef          	jal	ra,502044bc <sys_exit>
    50204a14:	0001                	nop
    50204a16:	60a6                	ld	ra,72(sp)
    50204a18:	6406                	ld	s0,64(sp)
    50204a1a:	6161                	addi	sp,sp,80
    50204a1c:	8082                	ret

0000000050204a1e <integer_test_task>:
    50204a1e:	7139                	addi	sp,sp,-64
    50204a20:	fc06                	sd	ra,56(sp)
    50204a22:	f822                	sd	s0,48(sp)
    50204a24:	0080                	addi	s0,sp,64
    50204a26:	87aa                	mv	a5,a0
    50204a28:	fcf42623          	sw	a5,-52(s0)
    50204a2c:	adbff0ef          	jal	ra,50204506 <sys_getpid>
    50204a30:	87aa                	mv	a5,a0
    50204a32:	fcf42e23          	sw	a5,-36(s0)
    50204a36:	fe043423          	sd	zero,-24(s0)
    50204a3a:	fe042223          	sw	zero,-28(s0)
    50204a3e:	a0a5                	j	50204aa6 <integer_test_task+0x88>
    50204a40:	fe042023          	sw	zero,-32(s0)
    50204a44:	a839                	j	50204a62 <integer_test_task+0x44>
    50204a46:	b2bff0ef          	jal	ra,50204570 <rand>
    50204a4a:	87aa                	mv	a5,a0
    50204a4c:	873e                	mv	a4,a5
    50204a4e:	fe843783          	ld	a5,-24(s0)
    50204a52:	97ba                	add	a5,a5,a4
    50204a54:	fef43423          	sd	a5,-24(s0)
    50204a58:	fe042783          	lw	a5,-32(s0)
    50204a5c:	2785                	addiw	a5,a5,1
    50204a5e:	fef42023          	sw	a5,-32(s0)
    50204a62:	fe042783          	lw	a5,-32(s0)
    50204a66:	0007871b          	sext.w	a4,a5
    50204a6a:	67e1                	lui	a5,0x18
    50204a6c:	69f78793          	addi	a5,a5,1695 # 1869f <_start-0x501e8961>
    50204a70:	fce7dbe3          	bge	a5,a4,50204a46 <integer_test_task+0x28>
    50204a74:	fcc42783          	lw	a5,-52(s0)
    50204a78:	85be                	mv	a1,a5
    50204a7a:	4505                	li	a0,1
    50204a7c:	8b7ff0ef          	jal	ra,50204332 <sys_move_cursor>
    50204a80:	fe442703          	lw	a4,-28(s0)
    50204a84:	fdc42783          	lw	a5,-36(s0)
    50204a88:	06400693          	li	a3,100
    50204a8c:	863a                	mv	a2,a4
    50204a8e:	85be                	mv	a1,a5
    50204a90:	00001517          	auipc	a0,0x1
    50204a94:	4d850513          	addi	a0,a0,1240 # 50205f68 <__FUNCTION__.1433+0x280>
    50204a98:	be8ff0ef          	jal	ra,50203e80 <printf>
    50204a9c:	fe442783          	lw	a5,-28(s0)
    50204aa0:	2785                	addiw	a5,a5,1
    50204aa2:	fef42223          	sw	a5,-28(s0)
    50204aa6:	fe442783          	lw	a5,-28(s0)
    50204aaa:	0007871b          	sext.w	a4,a5
    50204aae:	06300793          	li	a5,99
    50204ab2:	f8e7d7e3          	bge	a5,a4,50204a40 <integer_test_task+0x22>
    50204ab6:	a07ff0ef          	jal	ra,502044bc <sys_exit>
    50204aba:	0001                	nop
    50204abc:	70e2                	ld	ra,56(sp)
    50204abe:	7442                	ld	s0,48(sp)
    50204ac0:	6121                	addi	sp,sp,64
    50204ac2:	8082                	ret

0000000050204ac4 <test_barrier>:
    50204ac4:	7139                	addi	sp,sp,-64
    50204ac6:	fc06                	sd	ra,56(sp)
    50204ac8:	f822                	sd	s0,48(sp)
    50204aca:	0080                	addi	s0,sp,64
    50204acc:	a6bff0ef          	jal	ra,50204536 <clock>
    50204ad0:	87aa                	mv	a5,a0
    50204ad2:	2781                	sext.w	a5,a5
    50204ad4:	853e                	mv	a0,a5
    50204ad6:	a79ff0ef          	jal	ra,5020454e <srand>
    50204ada:	458d                	li	a1,3
    50204adc:	00004517          	auipc	a0,0x4
    50204ae0:	a1c50513          	addi	a0,a0,-1508 # 502084f8 <global_count>
    50204ae4:	f2cff0ef          	jal	ra,50204210 <mthread_barrier_init>
    50204ae8:	fc043c23          	sd	zero,-40(s0)
    50204aec:	fe043023          	sd	zero,-32(s0)
    50204af0:	00000797          	auipc	a5,0x0
    50204af4:	0aa78793          	addi	a5,a5,170 # 50204b9a <barrier_task>
    50204af8:	fcf43c23          	sd	a5,-40(s0)
    50204afc:	4789                	li	a5,2
    50204afe:	fef42023          	sw	a5,-32(s0)
    50204b02:	fe042623          	sw	zero,-20(s0)
    50204b06:	a825                	j	50204b3e <test_barrier+0x7a>
    50204b08:	fec42783          	lw	a5,-20(s0)
    50204b0c:	2785                	addiw	a5,a5,1
    50204b0e:	2781                	sext.w	a5,a5
    50204b10:	873e                	mv	a4,a5
    50204b12:	fd840793          	addi	a5,s0,-40
    50204b16:	4601                	li	a2,0
    50204b18:	85ba                	mv	a1,a4
    50204b1a:	853e                	mv	a0,a5
    50204b1c:	93bff0ef          	jal	ra,50204456 <sys_spawn>
    50204b20:	87aa                	mv	a5,a0
    50204b22:	873e                	mv	a4,a5
    50204b24:	fec42783          	lw	a5,-20(s0)
    50204b28:	078a                	slli	a5,a5,0x2
    50204b2a:	ff040693          	addi	a3,s0,-16
    50204b2e:	97b6                	add	a5,a5,a3
    50204b30:	fce7ac23          	sw	a4,-40(a5)
    50204b34:	fec42783          	lw	a5,-20(s0)
    50204b38:	2785                	addiw	a5,a5,1
    50204b3a:	fef42623          	sw	a5,-20(s0)
    50204b3e:	fec42783          	lw	a5,-20(s0)
    50204b42:	0007871b          	sext.w	a4,a5
    50204b46:	4789                	li	a5,2
    50204b48:	fce7d0e3          	bge	a5,a4,50204b08 <test_barrier+0x44>
    50204b4c:	fe042423          	sw	zero,-24(s0)
    50204b50:	a00d                	j	50204b72 <test_barrier+0xae>
    50204b52:	fe842783          	lw	a5,-24(s0)
    50204b56:	078a                	slli	a5,a5,0x2
    50204b58:	ff040713          	addi	a4,s0,-16
    50204b5c:	97ba                	add	a5,a5,a4
    50204b5e:	fd87a783          	lw	a5,-40(a5)
    50204b62:	853e                	mv	a0,a5
    50204b64:	977ff0ef          	jal	ra,502044da <sys_waitpid>
    50204b68:	fe842783          	lw	a5,-24(s0)
    50204b6c:	2785                	addiw	a5,a5,1
    50204b6e:	fef42423          	sw	a5,-24(s0)
    50204b72:	fe842783          	lw	a5,-24(s0)
    50204b76:	0007871b          	sext.w	a4,a5
    50204b7a:	4789                	li	a5,2
    50204b7c:	fce7dbe3          	bge	a5,a4,50204b52 <test_barrier+0x8e>
    50204b80:	00004517          	auipc	a0,0x4
    50204b84:	97850513          	addi	a0,a0,-1672 # 502084f8 <global_count>
    50204b88:	eb6ff0ef          	jal	ra,5020423e <mthread_barrier_destroy>
    50204b8c:	931ff0ef          	jal	ra,502044bc <sys_exit>
    50204b90:	0001                	nop
    50204b92:	70e2                	ld	ra,56(sp)
    50204b94:	7442                	ld	s0,48(sp)
    50204b96:	6121                	addi	sp,sp,64
    50204b98:	8082                	ret

0000000050204b9a <barrier_task>:
    50204b9a:	7179                	addi	sp,sp,-48
    50204b9c:	f406                	sd	ra,40(sp)
    50204b9e:	f022                	sd	s0,32(sp)
    50204ba0:	1800                	addi	s0,sp,48
    50204ba2:	87aa                	mv	a5,a0
    50204ba4:	fcf42e23          	sw	a5,-36(s0)
    50204ba8:	fe042623          	sw	zero,-20(s0)
    50204bac:	a8ad                	j	50204c26 <barrier_task+0x8c>
    50204bae:	9c3ff0ef          	jal	ra,50204570 <rand>
    50204bb2:	87aa                	mv	a5,a0
    50204bb4:	873e                	mv	a4,a5
    50204bb6:	478d                	li	a5,3
    50204bb8:	02f767bb          	remw	a5,a4,a5
    50204bbc:	2781                	sext.w	a5,a5
    50204bbe:	2785                	addiw	a5,a5,1
    50204bc0:	fef42423          	sw	a5,-24(s0)
    50204bc4:	fdc42783          	lw	a5,-36(s0)
    50204bc8:	85be                	mv	a1,a5
    50204bca:	4505                	li	a0,1
    50204bcc:	f66ff0ef          	jal	ra,50204332 <sys_move_cursor>
    50204bd0:	fec42783          	lw	a5,-20(s0)
    50204bd4:	85be                	mv	a1,a5
    50204bd6:	00001517          	auipc	a0,0x1
    50204bda:	3b250513          	addi	a0,a0,946 # 50205f88 <__FUNCTION__.1433+0x2a0>
    50204bde:	aa2ff0ef          	jal	ra,50203e80 <printf>
    50204be2:	00004517          	auipc	a0,0x4
    50204be6:	91650513          	addi	a0,a0,-1770 # 502084f8 <global_count>
    50204bea:	e40ff0ef          	jal	ra,5020422a <mthread_barrier_wait>
    50204bee:	fdc42783          	lw	a5,-36(s0)
    50204bf2:	85be                	mv	a1,a5
    50204bf4:	4505                	li	a0,1
    50204bf6:	f3cff0ef          	jal	ra,50204332 <sys_move_cursor>
    50204bfa:	fe842703          	lw	a4,-24(s0)
    50204bfe:	fec42783          	lw	a5,-20(s0)
    50204c02:	863a                	mv	a2,a4
    50204c04:	85be                	mv	a1,a5
    50204c06:	00001517          	auipc	a0,0x1
    50204c0a:	3b250513          	addi	a0,a0,946 # 50205fb8 <__FUNCTION__.1433+0x2d0>
    50204c0e:	a72ff0ef          	jal	ra,50203e80 <printf>
    50204c12:	fe842783          	lw	a5,-24(s0)
    50204c16:	853e                	mv	a0,a5
    50204c18:	e90ff0ef          	jal	ra,502042a8 <sys_sleep>
    50204c1c:	fec42783          	lw	a5,-20(s0)
    50204c20:	2785                	addiw	a5,a5,1
    50204c22:	fef42623          	sw	a5,-20(s0)
    50204c26:	fec42783          	lw	a5,-20(s0)
    50204c2a:	0007871b          	sext.w	a4,a5
    50204c2e:	47a5                	li	a5,9
    50204c30:	f6e7dfe3          	bge	a5,a4,50204bae <barrier_task+0x14>
    50204c34:	889ff0ef          	jal	ra,502044bc <sys_exit>
    50204c38:	0001                	nop
    50204c3a:	70a2                	ld	ra,40(sp)
    50204c3c:	7402                	ld	s0,32(sp)
    50204c3e:	6145                	addi	sp,sp,48
    50204c40:	8082                	ret

0000000050204c42 <ready_to_exit_task>:
    50204c42:	1101                	addi	sp,sp,-32
    50204c44:	ec06                	sd	ra,24(sp)
    50204c46:	e822                	sd	s0,16(sp)
    50204c48:	1000                	addi	s0,sp,32
    50204c4a:	fe042623          	sw	zero,-20(s0)
    50204c4e:	4785                	li	a5,1
    50204c50:	fef42423          	sw	a5,-24(s0)
    50204c54:	00004517          	auipc	a0,0x4
    50204c58:	47050513          	addi	a0,a0,1136 # 502090c4 <lock1>
    50204c5c:	cf2ff0ef          	jal	ra,5020414e <mthread_mutex_lock>
    50204c60:	00004517          	auipc	a0,0x4
    50204c64:	46850513          	addi	a0,a0,1128 # 502090c8 <lock2>
    50204c68:	ce6ff0ef          	jal	ra,5020414e <mthread_mutex_lock>
    50204c6c:	fe042623          	sw	zero,-20(s0)
    50204c70:	a835                	j	50204cac <ready_to_exit_task+0x6a>
    50204c72:	fe842783          	lw	a5,-24(s0)
    50204c76:	85be                	mv	a1,a5
    50204c78:	4505                	li	a0,1
    50204c7a:	eb8ff0ef          	jal	ra,50204332 <sys_move_cursor>
    50204c7e:	889ff0ef          	jal	ra,50204506 <sys_getpid>
    50204c82:	87aa                	mv	a5,a0
    50204c84:	86be                	mv	a3,a5
    50204c86:	fec42783          	lw	a5,-20(s0)
    50204c8a:	0017871b          	addiw	a4,a5,1
    50204c8e:	fee42623          	sw	a4,-20(s0)
    50204c92:	863e                	mv	a2,a5
    50204c94:	85b6                	mv	a1,a3
    50204c96:	00001517          	auipc	a0,0x1
    50204c9a:	35250513          	addi	a0,a0,850 # 50205fe8 <__FUNCTION__.1433+0x300>
    50204c9e:	9e2ff0ef          	jal	ra,50203e80 <printf>
    50204ca2:	fec42783          	lw	a5,-20(s0)
    50204ca6:	2785                	addiw	a5,a5,1
    50204ca8:	fef42623          	sw	a5,-20(s0)
    50204cac:	fec42783          	lw	a5,-20(s0)
    50204cb0:	0007871b          	sext.w	a4,a5
    50204cb4:	3e700793          	li	a5,999
    50204cb8:	fae7dde3          	bge	a5,a4,50204c72 <ready_to_exit_task+0x30>
    50204cbc:	00004517          	auipc	a0,0x4
    50204cc0:	40c50513          	addi	a0,a0,1036 # 502090c8 <lock2>
    50204cc4:	caeff0ef          	jal	ra,50204172 <mthread_mutex_unlock>
    50204cc8:	00004517          	auipc	a0,0x4
    50204ccc:	3fc50513          	addi	a0,a0,1020 # 502090c4 <lock1>
    50204cd0:	ca2ff0ef          	jal	ra,50204172 <mthread_mutex_unlock>
    50204cd4:	fe8ff0ef          	jal	ra,502044bc <sys_exit>
    50204cd8:	0001                	nop
    50204cda:	60e2                	ld	ra,24(sp)
    50204cdc:	6442                	ld	s0,16(sp)
    50204cde:	6105                	addi	sp,sp,32
    50204ce0:	8082                	ret

0000000050204ce2 <wait_lock_task>:
    50204ce2:	7179                	addi	sp,sp,-48
    50204ce4:	f406                	sd	ra,40(sp)
    50204ce6:	f022                	sd	s0,32(sp)
    50204ce8:	1800                	addi	s0,sp,48
    50204cea:	fca43c23          	sd	a0,-40(s0)
    50204cee:	4789                	li	a5,2
    50204cf0:	fef42623          	sw	a5,-20(s0)
    50204cf4:	fec42783          	lw	a5,-20(s0)
    50204cf8:	85be                	mv	a1,a5
    50204cfa:	4505                	li	a0,1
    50204cfc:	e36ff0ef          	jal	ra,50204332 <sys_move_cursor>
    50204d00:	fd843583          	ld	a1,-40(s0)
    50204d04:	00001517          	auipc	a0,0x1
    50204d08:	32c50513          	addi	a0,a0,812 # 50206030 <__FUNCTION__.1433+0x348>
    50204d0c:	974ff0ef          	jal	ra,50203e80 <printf>
    50204d10:	00004517          	auipc	a0,0x4
    50204d14:	3b450513          	addi	a0,a0,948 # 502090c4 <lock1>
    50204d18:	c36ff0ef          	jal	ra,5020414e <mthread_mutex_lock>
    50204d1c:	fec42783          	lw	a5,-20(s0)
    50204d20:	85be                	mv	a1,a5
    50204d22:	4505                	li	a0,1
    50204d24:	e0eff0ef          	jal	ra,50204332 <sys_move_cursor>
    50204d28:	fd843583          	ld	a1,-40(s0)
    50204d2c:	00001517          	auipc	a0,0x1
    50204d30:	34450513          	addi	a0,a0,836 # 50206070 <__FUNCTION__.1433+0x388>
    50204d34:	94cff0ef          	jal	ra,50203e80 <printf>
    50204d38:	00004517          	auipc	a0,0x4
    50204d3c:	38c50513          	addi	a0,a0,908 # 502090c4 <lock1>
    50204d40:	c32ff0ef          	jal	ra,50204172 <mthread_mutex_unlock>
    50204d44:	f78ff0ef          	jal	ra,502044bc <sys_exit>
    50204d48:	0001                	nop
    50204d4a:	70a2                	ld	ra,40(sp)
    50204d4c:	7402                	ld	s0,32(sp)
    50204d4e:	6145                	addi	sp,sp,48
    50204d50:	8082                	ret

0000000050204d52 <wait_exit_task>:
    50204d52:	7139                	addi	sp,sp,-64
    50204d54:	fc06                	sd	ra,56(sp)
    50204d56:	f822                	sd	s0,48(sp)
    50204d58:	0080                	addi	s0,sp,64
    50204d5a:	fc043823          	sd	zero,-48(s0)
    50204d5e:	fc043c23          	sd	zero,-40(s0)
    50204d62:	00000797          	auipc	a5,0x0
    50204d66:	ee078793          	addi	a5,a5,-288 # 50204c42 <ready_to_exit_task>
    50204d6a:	fcf43823          	sd	a5,-48(s0)
    50204d6e:	4789                	li	a5,2
    50204d70:	fcf42c23          	sw	a5,-40(s0)
    50204d74:	fc043023          	sd	zero,-64(s0)
    50204d78:	fc043423          	sd	zero,-56(s0)
    50204d7c:	00000797          	auipc	a5,0x0
    50204d80:	f6678793          	addi	a5,a5,-154 # 50204ce2 <wait_lock_task>
    50204d84:	fcf43023          	sd	a5,-64(s0)
    50204d88:	4789                	li	a5,2
    50204d8a:	fcf42423          	sw	a5,-56(s0)
    50204d8e:	00004517          	auipc	a0,0x4
    50204d92:	33650513          	addi	a0,a0,822 # 502090c4 <lock1>
    50204d96:	b98ff0ef          	jal	ra,5020412e <mthread_mutex_init>
    50204d9a:	00004517          	auipc	a0,0x4
    50204d9e:	32e50513          	addi	a0,a0,814 # 502090c8 <lock2>
    50204da2:	b8cff0ef          	jal	ra,5020412e <mthread_mutex_init>
    50204da6:	fd040793          	addi	a5,s0,-48
    50204daa:	4601                	li	a2,0
    50204dac:	4581                	li	a1,0
    50204dae:	853e                	mv	a0,a5
    50204db0:	ea6ff0ef          	jal	ra,50204456 <sys_spawn>
    50204db4:	87aa                	mv	a5,a0
    50204db6:	fef42623          	sw	a5,-20(s0)
    50204dba:	450d                	li	a0,3
    50204dbc:	cecff0ef          	jal	ra,502042a8 <sys_sleep>
    50204dc0:	fec42783          	lw	a5,-20(s0)
    50204dc4:	873e                	mv	a4,a5
    50204dc6:	fc040793          	addi	a5,s0,-64
    50204dca:	4605                	li	a2,1
    50204dcc:	85ba                	mv	a1,a4
    50204dce:	853e                	mv	a0,a5
    50204dd0:	e86ff0ef          	jal	ra,50204456 <sys_spawn>
    50204dd4:	87aa                	mv	a5,a0
    50204dd6:	fef42423          	sw	a5,-24(s0)
    50204dda:	478d                	li	a5,3
    50204ddc:	fef42223          	sw	a5,-28(s0)
    50204de0:	fe442783          	lw	a5,-28(s0)
    50204de4:	85be                	mv	a1,a5
    50204de6:	4505                	li	a0,1
    50204de8:	d4aff0ef          	jal	ra,50204332 <sys_move_cursor>
    50204dec:	fec42783          	lw	a5,-20(s0)
    50204df0:	85be                	mv	a1,a5
    50204df2:	00001517          	auipc	a0,0x1
    50204df6:	2be50513          	addi	a0,a0,702 # 502060b0 <__FUNCTION__.1433+0x3c8>
    50204dfa:	886ff0ef          	jal	ra,50203e80 <printf>
    50204dfe:	fec42783          	lw	a5,-20(s0)
    50204e02:	853e                	mv	a0,a5
    50204e04:	ed6ff0ef          	jal	ra,502044da <sys_waitpid>
    50204e08:	fe442783          	lw	a5,-28(s0)
    50204e0c:	85be                	mv	a1,a5
    50204e0e:	4505                	li	a0,1
    50204e10:	d22ff0ef          	jal	ra,50204332 <sys_move_cursor>
    50204e14:	fec42783          	lw	a5,-20(s0)
    50204e18:	85be                	mv	a1,a5
    50204e1a:	00001517          	auipc	a0,0x1
    50204e1e:	2c650513          	addi	a0,a0,710 # 502060e0 <__FUNCTION__.1433+0x3f8>
    50204e22:	85eff0ef          	jal	ra,50203e80 <printf>
    50204e26:	e96ff0ef          	jal	ra,502044bc <sys_exit>
    50204e2a:	0001                	nop
    50204e2c:	70e2                	ld	ra,56(sp)
    50204e2e:	7442                	ld	s0,48(sp)
    50204e30:	6121                	addi	sp,sp,64
    50204e32:	8082                	ret

0000000050204e34 <adler32>:
    50204e34:	7179                	addi	sp,sp,-48
    50204e36:	f422                	sd	s0,40(sp)
    50204e38:	1800                	addi	s0,sp,48
    50204e3a:	fca43c23          	sd	a0,-40(s0)
    50204e3e:	fcb43823          	sd	a1,-48(s0)
    50204e42:	4785                	li	a5,1
    50204e44:	fef42623          	sw	a5,-20(s0)
    50204e48:	fe042423          	sw	zero,-24(s0)
    50204e4c:	fe043023          	sd	zero,-32(s0)
    50204e50:	a0b1                	j	50204e9c <adler32+0x68>
    50204e52:	fd843703          	ld	a4,-40(s0)
    50204e56:	fe043783          	ld	a5,-32(s0)
    50204e5a:	97ba                	add	a5,a5,a4
    50204e5c:	0007c783          	lbu	a5,0(a5)
    50204e60:	2781                	sext.w	a5,a5
    50204e62:	fec42703          	lw	a4,-20(s0)
    50204e66:	9fb9                	addw	a5,a5,a4
    50204e68:	0007871b          	sext.w	a4,a5
    50204e6c:	67c1                	lui	a5,0x10
    50204e6e:	17c5                	addi	a5,a5,-15
    50204e70:	02f777bb          	remuw	a5,a4,a5
    50204e74:	fef42623          	sw	a5,-20(s0)
    50204e78:	fe842703          	lw	a4,-24(s0)
    50204e7c:	fec42783          	lw	a5,-20(s0)
    50204e80:	9fb9                	addw	a5,a5,a4
    50204e82:	0007871b          	sext.w	a4,a5
    50204e86:	67c1                	lui	a5,0x10
    50204e88:	17c5                	addi	a5,a5,-15
    50204e8a:	02f777bb          	remuw	a5,a4,a5
    50204e8e:	fef42423          	sw	a5,-24(s0)
    50204e92:	fe043783          	ld	a5,-32(s0)
    50204e96:	0785                	addi	a5,a5,1
    50204e98:	fef43023          	sd	a5,-32(s0)
    50204e9c:	fe043703          	ld	a4,-32(s0)
    50204ea0:	fd043783          	ld	a5,-48(s0)
    50204ea4:	faf767e3          	bltu	a4,a5,50204e52 <adler32+0x1e>
    50204ea8:	fe842783          	lw	a5,-24(s0)
    50204eac:	0107979b          	slliw	a5,a5,0x10
    50204eb0:	0007871b          	sext.w	a4,a5
    50204eb4:	fec42783          	lw	a5,-20(s0)
    50204eb8:	8fd9                	or	a5,a5,a4
    50204eba:	2781                	sext.w	a5,a5
    50204ebc:	853e                	mv	a0,a5
    50204ebe:	7422                	ld	s0,40(sp)
    50204ec0:	6145                	addi	sp,sp,48
    50204ec2:	8082                	ret

0000000050204ec4 <clientInitReq>:
    50204ec4:	7179                	addi	sp,sp,-48
    50204ec6:	f422                	sd	s0,40(sp)
    50204ec8:	1800                	addi	s0,sp,48
    50204eca:	fca43c23          	sd	a0,-40(s0)
    50204ece:	87ae                	mv	a5,a1
    50204ed0:	fcf42a23          	sw	a5,-44(s0)
    50204ed4:	4739                	li	a4,14
    50204ed6:	fd442783          	lw	a5,-44(s0)
    50204eda:	2781                	sext.w	a5,a5
    50204edc:	00e78463          	beq	a5,a4,50204ee4 <clientInitReq+0x20>
    50204ee0:	4781                	li	a5,0
    50204ee2:	a0a9                	j	50204f2c <clientInitReq+0x68>
    50204ee4:	fe042623          	sw	zero,-20(s0)
    50204ee8:	a81d                	j	50204f1e <clientInitReq+0x5a>
    50204eea:	fec42783          	lw	a5,-20(s0)
    50204eee:	fd843703          	ld	a4,-40(s0)
    50204ef2:	97ba                	add	a5,a5,a4
    50204ef4:	0007c683          	lbu	a3,0(a5) # 10000 <_start-0x501f1000>
    50204ef8:	00001717          	auipc	a4,0x1
    50204efc:	22070713          	addi	a4,a4,544 # 50206118 <initReq>
    50204f00:	fec42783          	lw	a5,-20(s0)
    50204f04:	97ba                	add	a5,a5,a4
    50204f06:	0007c783          	lbu	a5,0(a5)
    50204f0a:	8736                	mv	a4,a3
    50204f0c:	00f70463          	beq	a4,a5,50204f14 <clientInitReq+0x50>
    50204f10:	4781                	li	a5,0
    50204f12:	a829                	j	50204f2c <clientInitReq+0x68>
    50204f14:	fec42783          	lw	a5,-20(s0)
    50204f18:	2785                	addiw	a5,a5,1
    50204f1a:	fef42623          	sw	a5,-20(s0)
    50204f1e:	4739                	li	a4,14
    50204f20:	fec42783          	lw	a5,-20(s0)
    50204f24:	2781                	sext.w	a5,a5
    50204f26:	fce7c2e3          	blt	a5,a4,50204eea <clientInitReq+0x26>
    50204f2a:	4785                	li	a5,1
    50204f2c:	853e                	mv	a0,a5
    50204f2e:	7422                	ld	s0,40(sp)
    50204f30:	6145                	addi	sp,sp,48
    50204f32:	8082                	ret

0000000050204f34 <strServer>:
    50204f34:	7135                	addi	sp,sp,-160
    50204f36:	ed06                	sd	ra,152(sp)
    50204f38:	e922                	sd	s0,144(sp)
    50204f3a:	1100                	addi	s0,sp,160
    50204f3c:	fe043423          	sd	zero,-24(s0)
    50204f40:	fe043023          	sd	zero,-32(s0)
    50204f44:	fc043c23          	sd	zero,-40(s0)
    50204f48:	4785                	li	a5,1
    50204f4a:	f6f42623          	sw	a5,-148(s0)
    50204f4e:	00001517          	auipc	a0,0x1
    50204f52:	1da50513          	addi	a0,a0,474 # 50206128 <initReq+0x10>
    50204f56:	e72ff0ef          	jal	ra,502045c8 <mbox_open>
    50204f5a:	87aa                	mv	a5,a0
    50204f5c:	fcf43823          	sd	a5,-48(s0)
    50204f60:	00001517          	auipc	a0,0x1
    50204f64:	1e050513          	addi	a0,a0,480 # 50206140 <initReq+0x28>
    50204f68:	e60ff0ef          	jal	ra,502045c8 <mbox_open>
    50204f6c:	87aa                	mv	a5,a0
    50204f6e:	fcf43423          	sd	a5,-56(s0)
    50204f72:	4581                	li	a1,0
    50204f74:	4501                	li	a0,0
    50204f76:	bbcff0ef          	jal	ra,50204332 <sys_move_cursor>
    50204f7a:	00001517          	auipc	a0,0x1
    50204f7e:	1de50513          	addi	a0,a0,478 # 50206158 <initReq+0x40>
    50204f82:	efffe0ef          	jal	ra,50203e80 <printf>
    50204f86:	4505                	li	a0,1
    50204f88:	b20ff0ef          	jal	ra,502042a8 <sys_sleep>
    50204f8c:	fd043783          	ld	a5,-48(s0)
    50204f90:	2781                	sext.w	a5,a5
    50204f92:	f7040713          	addi	a4,s0,-144
    50204f96:	4631                	li	a2,12
    50204f98:	85ba                	mv	a1,a4
    50204f9a:	853e                	mv	a0,a5
    50204f9c:	e76ff0ef          	jal	ra,50204612 <mbox_recv>
    50204fa0:	87aa                	mv	a5,a0
    50204fa2:	873e                	mv	a4,a5
    50204fa4:	fd843783          	ld	a5,-40(s0)
    50204fa8:	97ba                	add	a5,a5,a4
    50204faa:	fcf43c23          	sd	a5,-40(s0)
    50204fae:	fd043783          	ld	a5,-48(s0)
    50204fb2:	2781                	sext.w	a5,a5
    50204fb4:	f7042683          	lw	a3,-144(s0)
    50204fb8:	f8040713          	addi	a4,s0,-128
    50204fbc:	8636                	mv	a2,a3
    50204fbe:	85ba                	mv	a1,a4
    50204fc0:	853e                	mv	a0,a5
    50204fc2:	e50ff0ef          	jal	ra,50204612 <mbox_recv>
    50204fc6:	87aa                	mv	a5,a0
    50204fc8:	873e                	mv	a4,a5
    50204fca:	fd843783          	ld	a5,-40(s0)
    50204fce:	97ba                	add	a5,a5,a4
    50204fd0:	fcf43c23          	sd	a5,-40(s0)
    50204fd4:	f7042783          	lw	a5,-144(s0)
    50204fd8:	873e                	mv	a4,a5
    50204fda:	f8040793          	addi	a5,s0,-128
    50204fde:	85ba                	mv	a1,a4
    50204fe0:	853e                	mv	a0,a5
    50204fe2:	e53ff0ef          	jal	ra,50204e34 <adler32>
    50204fe6:	87aa                	mv	a5,a0
    50204fe8:	fcf42223          	sw	a5,-60(s0)
    50204fec:	f7442703          	lw	a4,-140(s0)
    50204ff0:	fc442783          	lw	a5,-60(s0)
    50204ff4:	2781                	sext.w	a5,a5
    50204ff6:	00e79b63          	bne	a5,a4,5020500c <strServer+0xd8>
    50204ffa:	f7042783          	lw	a5,-144(s0)
    50204ffe:	873e                	mv	a4,a5
    50205000:	fe843783          	ld	a5,-24(s0)
    50205004:	97ba                	add	a5,a5,a4
    50205006:	fef43423          	sd	a5,-24(s0)
    5020500a:	a809                	j	5020501c <strServer+0xe8>
    5020500c:	f7042783          	lw	a5,-144(s0)
    50205010:	873e                	mv	a4,a5
    50205012:	fe043783          	ld	a5,-32(s0)
    50205016:	97ba                	add	a5,a5,a4
    50205018:	fef43023          	sd	a5,-32(s0)
    5020501c:	4581                	li	a1,0
    5020501e:	4501                	li	a0,0
    50205020:	b12ff0ef          	jal	ra,50204332 <sys_move_cursor>
    50205024:	f7842783          	lw	a5,-136(s0)
    50205028:	fe043703          	ld	a4,-32(s0)
    5020502c:	fe843683          	ld	a3,-24(s0)
    50205030:	fd843603          	ld	a2,-40(s0)
    50205034:	85be                	mv	a1,a5
    50205036:	00001517          	auipc	a0,0x1
    5020503a:	13a50513          	addi	a0,a0,314 # 50206170 <initReq+0x58>
    5020503e:	e43fe0ef          	jal	ra,50203e80 <printf>
    50205042:	f7042703          	lw	a4,-144(s0)
    50205046:	f8040793          	addi	a5,s0,-128
    5020504a:	85ba                	mv	a1,a4
    5020504c:	853e                	mv	a0,a5
    5020504e:	e77ff0ef          	jal	ra,50204ec4 <clientInitReq>
    50205052:	87aa                	mv	a5,a0
    50205054:	c38d                	beqz	a5,50205076 <strServer+0x142>
    50205056:	fc843783          	ld	a5,-56(s0)
    5020505a:	2781                	sext.w	a5,a5
    5020505c:	f6c40713          	addi	a4,s0,-148
    50205060:	4611                	li	a2,4
    50205062:	85ba                	mv	a1,a4
    50205064:	853e                	mv	a0,a5
    50205066:	d8aff0ef          	jal	ra,502045f0 <mbox_send>
    5020506a:	f6c42783          	lw	a5,-148(s0)
    5020506e:	2785                	addiw	a5,a5,1
    50205070:	2781                	sext.w	a5,a5
    50205072:	f6f42623          	sw	a5,-148(s0)
    50205076:	4505                	li	a0,1
    50205078:	a30ff0ef          	jal	ra,502042a8 <sys_sleep>
    5020507c:	bf01                	j	50204f8c <strServer+0x58>

000000005020507e <clientSendMsg>:
    5020507e:	7175                	addi	sp,sp,-144
    50205080:	e506                	sd	ra,136(sp)
    50205082:	e122                	sd	s0,128(sp)
    50205084:	0900                	addi	s0,sp,144
    50205086:	f8a43423          	sd	a0,-120(s0)
    5020508a:	f8b43023          	sd	a1,-128(s0)
    5020508e:	87b2                	mv	a5,a2
    50205090:	f6f42e23          	sw	a5,-132(s0)
    50205094:	f8043c23          	sd	zero,-104(s0)
    50205098:	fa043023          	sd	zero,-96(s0)
    5020509c:	fa043423          	sd	zero,-88(s0)
    502050a0:	fa043823          	sd	zero,-80(s0)
    502050a4:	fa043c23          	sd	zero,-72(s0)
    502050a8:	fc043023          	sd	zero,-64(s0)
    502050ac:	fc043423          	sd	zero,-56(s0)
    502050b0:	fc043823          	sd	zero,-48(s0)
    502050b4:	f9840793          	addi	a5,s0,-104
    502050b8:	fef43023          	sd	a5,-32(s0)
    502050bc:	f9840793          	addi	a5,s0,-104
    502050c0:	07b1                	addi	a5,a5,12
    502050c2:	fcf43c23          	sd	a5,-40(s0)
    502050c6:	fe043783          	ld	a5,-32(s0)
    502050ca:	f7c42703          	lw	a4,-132(s0)
    502050ce:	c398                	sw	a4,0(a5)
    502050d0:	f7c42783          	lw	a5,-132(s0)
    502050d4:	85be                	mv	a1,a5
    502050d6:	f8043503          	ld	a0,-128(s0)
    502050da:	d5bff0ef          	jal	ra,50204e34 <adler32>
    502050de:	87aa                	mv	a5,a0
    502050e0:	0007871b          	sext.w	a4,a5
    502050e4:	fe043783          	ld	a5,-32(s0)
    502050e8:	c3d8                	sw	a4,4(a5)
    502050ea:	c1cff0ef          	jal	ra,50204506 <sys_getpid>
    502050ee:	87aa                	mv	a5,a0
    502050f0:	873e                	mv	a4,a5
    502050f2:	fe043783          	ld	a5,-32(s0)
    502050f6:	c798                	sw	a4,8(a5)
    502050f8:	fe042623          	sw	zero,-20(s0)
    502050fc:	a025                	j	50205124 <clientSendMsg+0xa6>
    502050fe:	fec42783          	lw	a5,-20(s0)
    50205102:	f8043703          	ld	a4,-128(s0)
    50205106:	973e                	add	a4,a4,a5
    50205108:	fec42783          	lw	a5,-20(s0)
    5020510c:	fd843683          	ld	a3,-40(s0)
    50205110:	97b6                	add	a5,a5,a3
    50205112:	00074703          	lbu	a4,0(a4)
    50205116:	00e78023          	sb	a4,0(a5)
    5020511a:	fec42783          	lw	a5,-20(s0)
    5020511e:	2785                	addiw	a5,a5,1
    50205120:	fef42623          	sw	a5,-20(s0)
    50205124:	fec42703          	lw	a4,-20(s0)
    50205128:	f7c42783          	lw	a5,-132(s0)
    5020512c:	2701                	sext.w	a4,a4
    5020512e:	2781                	sext.w	a5,a5
    50205130:	fcf747e3          	blt	a4,a5,502050fe <clientSendMsg+0x80>
    50205134:	f8843783          	ld	a5,-120(s0)
    50205138:	0007871b          	sext.w	a4,a5
    5020513c:	f7c42783          	lw	a5,-132(s0)
    50205140:	27b1                	addiw	a5,a5,12
    50205142:	2781                	sext.w	a5,a5
    50205144:	0007869b          	sext.w	a3,a5
    50205148:	f9840793          	addi	a5,s0,-104
    5020514c:	8636                	mv	a2,a3
    5020514e:	85be                	mv	a1,a5
    50205150:	853a                	mv	a0,a4
    50205152:	c9eff0ef          	jal	ra,502045f0 <mbox_send>
    50205156:	87aa                	mv	a5,a0
    50205158:	853e                	mv	a0,a5
    5020515a:	60aa                	ld	ra,136(sp)
    5020515c:	640a                	ld	s0,128(sp)
    5020515e:	6149                	addi	sp,sp,144
    50205160:	8082                	ret

0000000050205162 <generateRandomString>:
    50205162:	7179                	addi	sp,sp,-48
    50205164:	f406                	sd	ra,40(sp)
    50205166:	f022                	sd	s0,32(sp)
    50205168:	1800                	addi	s0,sp,48
    5020516a:	fca43c23          	sd	a0,-40(s0)
    5020516e:	87ae                	mv	a5,a1
    50205170:	fcf42a23          	sw	a5,-44(s0)
    50205174:	fd442783          	lw	a5,-44(s0)
    50205178:	37f9                	addiw	a5,a5,-2
    5020517a:	fef42623          	sw	a5,-20(s0)
    5020517e:	fd442783          	lw	a5,-44(s0)
    50205182:	17fd                	addi	a5,a5,-1
    50205184:	fd843703          	ld	a4,-40(s0)
    50205188:	97ba                	add	a5,a5,a4
    5020518a:	00078023          	sb	zero,0(a5)
    5020518e:	a089                	j	502051d0 <generateRandomString+0x6e>
    50205190:	be0ff0ef          	jal	ra,50204570 <rand>
    50205194:	87aa                	mv	a5,a0
    50205196:	873e                	mv	a4,a5
    50205198:	00001797          	auipc	a5,0x1
    5020519c:	3f078793          	addi	a5,a5,1008 # 50206588 <alphaSz.1389>
    502051a0:	439c                	lw	a5,0(a5)
    502051a2:	02f767bb          	remw	a5,a4,a5
    502051a6:	0007871b          	sext.w	a4,a5
    502051aa:	fec42783          	lw	a5,-20(s0)
    502051ae:	fd843683          	ld	a3,-40(s0)
    502051b2:	97b6                	add	a5,a5,a3
    502051b4:	00001697          	auipc	a3,0x1
    502051b8:	05c68693          	addi	a3,a3,92 # 50206210 <alpha.1388>
    502051bc:	9736                	add	a4,a4,a3
    502051be:	00074703          	lbu	a4,0(a4)
    502051c2:	00e78023          	sb	a4,0(a5)
    502051c6:	fec42783          	lw	a5,-20(s0)
    502051ca:	37fd                	addiw	a5,a5,-1
    502051cc:	fef42623          	sw	a5,-20(s0)
    502051d0:	fec42783          	lw	a5,-20(s0)
    502051d4:	2781                	sext.w	a5,a5
    502051d6:	fa07dde3          	bgez	a5,50205190 <generateRandomString+0x2e>
    502051da:	0001                	nop
    502051dc:	0001                	nop
    502051de:	70a2                	ld	ra,40(sp)
    502051e0:	7402                	ld	s0,32(sp)
    502051e2:	6145                	addi	sp,sp,48
    502051e4:	8082                	ret

00000000502051e6 <strGenerator>:
    502051e6:	716d                	addi	sp,sp,-272
    502051e8:	e606                	sd	ra,264(sp)
    502051ea:	e222                	sd	s0,256(sp)
    502051ec:	0a00                	addi	s0,sp,272
    502051ee:	00001517          	auipc	a0,0x1
    502051f2:	f3a50513          	addi	a0,a0,-198 # 50206128 <initReq+0x10>
    502051f6:	bd2ff0ef          	jal	ra,502045c8 <mbox_open>
    502051fa:	87aa                	mv	a5,a0
    502051fc:	fcf43c23          	sd	a5,-40(s0)
    50205200:	00001517          	auipc	a0,0x1
    50205204:	f4050513          	addi	a0,a0,-192 # 50206140 <initReq+0x28>
    50205208:	bc0ff0ef          	jal	ra,502045c8 <mbox_open>
    5020520c:	87aa                	mv	a5,a0
    5020520e:	fcf43823          	sd	a5,-48(s0)
    50205212:	fc042623          	sw	zero,-52(s0)
    50205216:	47b9                	li	a5,14
    50205218:	863e                	mv	a2,a5
    5020521a:	00001597          	auipc	a1,0x1
    5020521e:	efe58593          	addi	a1,a1,-258 # 50206118 <initReq>
    50205222:	fd843503          	ld	a0,-40(s0)
    50205226:	e59ff0ef          	jal	ra,5020507e <clientSendMsg>
    5020522a:	ee042a23          	sw	zero,-268(s0)
    5020522e:	fd043783          	ld	a5,-48(s0)
    50205232:	2781                	sext.w	a5,a5
    50205234:	ef440713          	addi	a4,s0,-268
    50205238:	4611                	li	a2,4
    5020523a:	85ba                	mv	a1,a4
    5020523c:	853e                	mv	a0,a5
    5020523e:	bd4ff0ef          	jal	ra,50204612 <mbox_recv>
    50205242:	fe042623          	sw	zero,-20(s0)
    50205246:	fe043023          	sd	zero,-32(s0)
    5020524a:	ef442783          	lw	a5,-268(s0)
    5020524e:	85be                	mv	a1,a5
    50205250:	4501                	li	a0,0
    50205252:	8e0ff0ef          	jal	ra,50204332 <sys_move_cursor>
    50205256:	ef442783          	lw	a5,-268(s0)
    5020525a:	85be                	mv	a1,a5
    5020525c:	00001517          	auipc	a0,0x1
    50205260:	f6450513          	addi	a0,a0,-156 # 502061c0 <initReq+0xa8>
    50205264:	c1dfe0ef          	jal	ra,50203e80 <printf>
    50205268:	4505                	li	a0,1
    5020526a:	83eff0ef          	jal	ra,502042a8 <sys_sleep>
    5020526e:	b02ff0ef          	jal	ra,50204570 <rand>
    50205272:	87aa                	mv	a5,a0
    50205274:	873e                	mv	a4,a5
    50205276:	47e9                	li	a5,26
    50205278:	02f777b3          	remu	a5,a4,a5
    5020527c:	2781                	sext.w	a5,a5
    5020527e:	2785                	addiw	a5,a5,1
    50205280:	2781                	sext.w	a5,a5
    50205282:	fcf42623          	sw	a5,-52(s0)
    50205286:	fcc42703          	lw	a4,-52(s0)
    5020528a:	ef840793          	addi	a5,s0,-264
    5020528e:	85ba                	mv	a1,a4
    50205290:	853e                	mv	a0,a5
    50205292:	ed1ff0ef          	jal	ra,50205162 <generateRandomString>
    50205296:	fcc42703          	lw	a4,-52(s0)
    5020529a:	ef840793          	addi	a5,s0,-264
    5020529e:	863a                	mv	a2,a4
    502052a0:	85be                	mv	a1,a5
    502052a2:	fd843503          	ld	a0,-40(s0)
    502052a6:	dd9ff0ef          	jal	ra,5020507e <clientSendMsg>
    502052aa:	87aa                	mv	a5,a0
    502052ac:	873e                	mv	a4,a5
    502052ae:	fec42783          	lw	a5,-20(s0)
    502052b2:	9fb9                	addw	a5,a5,a4
    502052b4:	fef42623          	sw	a5,-20(s0)
    502052b8:	fcc42783          	lw	a5,-52(s0)
    502052bc:	fe043703          	ld	a4,-32(s0)
    502052c0:	97ba                	add	a5,a5,a4
    502052c2:	fef43023          	sd	a5,-32(s0)
    502052c6:	ef442783          	lw	a5,-268(s0)
    502052ca:	85be                	mv	a1,a5
    502052cc:	4501                	li	a0,0
    502052ce:	864ff0ef          	jal	ra,50204332 <sys_move_cursor>
    502052d2:	ef442783          	lw	a5,-268(s0)
    502052d6:	fec42703          	lw	a4,-20(s0)
    502052da:	86ba                	mv	a3,a4
    502052dc:	fe043603          	ld	a2,-32(s0)
    502052e0:	85be                	mv	a1,a5
    502052e2:	00001517          	auipc	a0,0x1
    502052e6:	efe50513          	addi	a0,a0,-258 # 502061e0 <initReq+0xc8>
    502052ea:	b97fe0ef          	jal	ra,50203e80 <printf>
    502052ee:	4505                	li	a0,1
    502052f0:	fb9fe0ef          	jal	ra,502042a8 <sys_sleep>
    502052f4:	bfad                	j	5020526e <strGenerator+0x88>

00000000502052f6 <test_multicore>:
    502052f6:	7131                	addi	sp,sp,-192
    502052f8:	fd06                	sd	ra,184(sp)
    502052fa:	f922                	sd	s0,176(sp)
    502052fc:	0180                	addi	s0,sp,192
    502052fe:	4585                	li	a1,1
    50205300:	4505                	li	a0,1
    50205302:	830ff0ef          	jal	ra,50204332 <sys_move_cursor>
    50205306:	00001517          	auipc	a0,0x1
    5020530a:	f6250513          	addi	a0,a0,-158 # 50206268 <alpha.1388+0x58>
    5020530e:	b73fe0ef          	jal	ra,50203e80 <printf>
    50205312:	fa042623          	sw	zero,-84(s0)
    50205316:	f8043c23          	sd	zero,-104(s0)
    5020531a:	fa043023          	sd	zero,-96(s0)
    5020531e:	00000797          	auipc	a5,0x0
    50205322:	26878793          	addi	a5,a5,616 # 50205586 <add_task>
    50205326:	f8f43c23          	sd	a5,-104(s0)
    5020532a:	4789                	li	a5,2
    5020532c:	faf42023          	sw	a5,-96(s0)
    50205330:	4785                	li	a5,1
    50205332:	f8f42023          	sw	a5,-128(s0)
    50205336:	f8042223          	sw	zero,-124(s0)
    5020533a:	004c57b7          	lui	a5,0x4c5
    5020533e:	b4078793          	addi	a5,a5,-1216 # 4c4b40 <_start-0x4fd3c4c0>
    50205342:	f8f42423          	sw	a5,-120(s0)
    50205346:	fac40793          	addi	a5,s0,-84
    5020534a:	f8f43823          	sd	a5,-112(s0)
    5020534e:	9e8ff0ef          	jal	ra,50204536 <clock>
    50205352:	fca43823          	sd	a0,-48(s0)
    50205356:	f8040713          	addi	a4,s0,-128
    5020535a:	f9840793          	addi	a5,s0,-104
    5020535e:	4601                	li	a2,0
    50205360:	85ba                	mv	a1,a4
    50205362:	853e                	mv	a0,a5
    50205364:	8f2ff0ef          	jal	ra,50204456 <sys_spawn>
    50205368:	87aa                	mv	a5,a0
    5020536a:	fcf42623          	sw	a5,-52(s0)
    5020536e:	fcc42783          	lw	a5,-52(s0)
    50205372:	853e                	mv	a0,a5
    50205374:	966ff0ef          	jal	ra,502044da <sys_waitpid>
    50205378:	9beff0ef          	jal	ra,50204536 <clock>
    5020537c:	fca43023          	sd	a0,-64(s0)
    50205380:	4599                	li	a1,6
    50205382:	4505                	li	a0,1
    50205384:	faffe0ef          	jal	ra,50204332 <sys_move_cursor>
    50205388:	fc043703          	ld	a4,-64(s0)
    5020538c:	fd043783          	ld	a5,-48(s0)
    50205390:	40f707b3          	sub	a5,a4,a5
    50205394:	fac42703          	lw	a4,-84(s0)
    50205398:	863a                	mv	a2,a4
    5020539a:	85be                	mv	a1,a5
    5020539c:	00001517          	auipc	a0,0x1
    502053a0:	ef450513          	addi	a0,a0,-268 # 50206290 <alpha.1388+0x80>
    502053a4:	addfe0ef          	jal	ra,50203e80 <printf>
    502053a8:	f4043023          	sd	zero,-192(s0)
    502053ac:	fe042623          	sw	zero,-20(s0)
    502053b0:	a06d                	j	5020545a <test_multicore+0x164>
    502053b2:	fec42783          	lw	a5,-20(s0)
    502053b6:	2785                	addiw	a5,a5,1
    502053b8:	0007869b          	sext.w	a3,a5
    502053bc:	fec42703          	lw	a4,-20(s0)
    502053c0:	87ba                	mv	a5,a4
    502053c2:	0786                	slli	a5,a5,0x1
    502053c4:	97ba                	add	a5,a5,a4
    502053c6:	078e                	slli	a5,a5,0x3
    502053c8:	ff040713          	addi	a4,s0,-16
    502053cc:	97ba                	add	a5,a5,a4
    502053ce:	f6d7a023          	sw	a3,-160(a5)
    502053d2:	fec42703          	lw	a4,-20(s0)
    502053d6:	002627b7          	lui	a5,0x262
    502053da:	5a07879b          	addiw	a5,a5,1440
    502053de:	02f707bb          	mulw	a5,a4,a5
    502053e2:	0007869b          	sext.w	a3,a5
    502053e6:	fec42703          	lw	a4,-20(s0)
    502053ea:	87ba                	mv	a5,a4
    502053ec:	0786                	slli	a5,a5,0x1
    502053ee:	97ba                	add	a5,a5,a4
    502053f0:	078e                	slli	a5,a5,0x3
    502053f2:	ff040713          	addi	a4,s0,-16
    502053f6:	97ba                	add	a5,a5,a4
    502053f8:	f6d7a223          	sw	a3,-156(a5) # 261f64 <_start-0x4ff9f09c>
    502053fc:	fec42783          	lw	a5,-20(s0)
    50205400:	2785                	addiw	a5,a5,1
    50205402:	0007871b          	sext.w	a4,a5
    50205406:	002627b7          	lui	a5,0x262
    5020540a:	5a07879b          	addiw	a5,a5,1440
    5020540e:	02f707bb          	mulw	a5,a4,a5
    50205412:	0007869b          	sext.w	a3,a5
    50205416:	fec42703          	lw	a4,-20(s0)
    5020541a:	87ba                	mv	a5,a4
    5020541c:	0786                	slli	a5,a5,0x1
    5020541e:	97ba                	add	a5,a5,a4
    50205420:	078e                	slli	a5,a5,0x3
    50205422:	ff040713          	addi	a4,s0,-16
    50205426:	97ba                	add	a5,a5,a4
    50205428:	f6d7a423          	sw	a3,-152(a5) # 261f68 <_start-0x4ff9f098>
    5020542c:	f4040713          	addi	a4,s0,-192
    50205430:	fec42783          	lw	a5,-20(s0)
    50205434:	078a                	slli	a5,a5,0x2
    50205436:	00f706b3          	add	a3,a4,a5
    5020543a:	fec42703          	lw	a4,-20(s0)
    5020543e:	87ba                	mv	a5,a4
    50205440:	0786                	slli	a5,a5,0x1
    50205442:	97ba                	add	a5,a5,a4
    50205444:	078e                	slli	a5,a5,0x3
    50205446:	ff040713          	addi	a4,s0,-16
    5020544a:	97ba                	add	a5,a5,a4
    5020544c:	f6d7b823          	sd	a3,-144(a5)
    50205450:	fec42783          	lw	a5,-20(s0)
    50205454:	2785                	addiw	a5,a5,1
    50205456:	fef42623          	sw	a5,-20(s0)
    5020545a:	fec42783          	lw	a5,-20(s0)
    5020545e:	0007871b          	sext.w	a4,a5
    50205462:	4785                	li	a5,1
    50205464:	f4e7d7e3          	bge	a5,a4,502053b2 <test_multicore+0xbc>
    50205468:	8ceff0ef          	jal	ra,50204536 <clock>
    5020546c:	faa43c23          	sd	a0,-72(s0)
    50205470:	fe042423          	sw	zero,-24(s0)
    50205474:	a089                	j	502054b6 <test_multicore+0x1c0>
    50205476:	f5040693          	addi	a3,s0,-176
    5020547a:	fe842703          	lw	a4,-24(s0)
    5020547e:	87ba                	mv	a5,a4
    50205480:	0786                	slli	a5,a5,0x1
    50205482:	97ba                	add	a5,a5,a4
    50205484:	078e                	slli	a5,a5,0x3
    50205486:	00f68733          	add	a4,a3,a5
    5020548a:	f9840793          	addi	a5,s0,-104
    5020548e:	4601                	li	a2,0
    50205490:	85ba                	mv	a1,a4
    50205492:	853e                	mv	a0,a5
    50205494:	fc3fe0ef          	jal	ra,50204456 <sys_spawn>
    50205498:	87aa                	mv	a5,a0
    5020549a:	873e                	mv	a4,a5
    5020549c:	fe842783          	lw	a5,-24(s0)
    502054a0:	078a                	slli	a5,a5,0x2
    502054a2:	ff040693          	addi	a3,s0,-16
    502054a6:	97b6                	add	a5,a5,a3
    502054a8:	f4e7ac23          	sw	a4,-168(a5)
    502054ac:	fe842783          	lw	a5,-24(s0)
    502054b0:	2785                	addiw	a5,a5,1
    502054b2:	fef42423          	sw	a5,-24(s0)
    502054b6:	fe842783          	lw	a5,-24(s0)
    502054ba:	0007871b          	sext.w	a4,a5
    502054be:	4785                	li	a5,1
    502054c0:	fae7dbe3          	bge	a5,a4,50205476 <test_multicore+0x180>
    502054c4:	fe042223          	sw	zero,-28(s0)
    502054c8:	a00d                	j	502054ea <test_multicore+0x1f4>
    502054ca:	fe442783          	lw	a5,-28(s0)
    502054ce:	078a                	slli	a5,a5,0x2
    502054d0:	ff040713          	addi	a4,s0,-16
    502054d4:	97ba                	add	a5,a5,a4
    502054d6:	f587a783          	lw	a5,-168(a5)
    502054da:	853e                	mv	a0,a5
    502054dc:	ffffe0ef          	jal	ra,502044da <sys_waitpid>
    502054e0:	fe442783          	lw	a5,-28(s0)
    502054e4:	2785                	addiw	a5,a5,1
    502054e6:	fef42223          	sw	a5,-28(s0)
    502054ea:	fe442783          	lw	a5,-28(s0)
    502054ee:	0007871b          	sext.w	a4,a5
    502054f2:	4785                	li	a5,1
    502054f4:	fce7dbe3          	bge	a5,a4,502054ca <test_multicore+0x1d4>
    502054f8:	fe042023          	sw	zero,-32(s0)
    502054fc:	fc042e23          	sw	zero,-36(s0)
    50205500:	a82d                	j	5020553a <test_multicore+0x244>
    50205502:	fdc42783          	lw	a5,-36(s0)
    50205506:	078a                	slli	a5,a5,0x2
    50205508:	ff040713          	addi	a4,s0,-16
    5020550c:	97ba                	add	a5,a5,a4
    5020550e:	f507a783          	lw	a5,-176(a5)
    50205512:	fe042703          	lw	a4,-32(s0)
    50205516:	9fb9                	addw	a5,a5,a4
    50205518:	fef42023          	sw	a5,-32(s0)
    5020551c:	fe042703          	lw	a4,-32(s0)
    50205520:	000f47b7          	lui	a5,0xf4
    50205524:	2477879b          	addiw	a5,a5,583
    50205528:	02f767bb          	remw	a5,a4,a5
    5020552c:	fef42023          	sw	a5,-32(s0)
    50205530:	fdc42783          	lw	a5,-36(s0)
    50205534:	2785                	addiw	a5,a5,1
    50205536:	fcf42e23          	sw	a5,-36(s0)
    5020553a:	fdc42783          	lw	a5,-36(s0)
    5020553e:	0007871b          	sext.w	a4,a5
    50205542:	4785                	li	a5,1
    50205544:	fae7dfe3          	bge	a5,a4,50205502 <test_multicore+0x20c>
    50205548:	feffe0ef          	jal	ra,50204536 <clock>
    5020554c:	faa43823          	sd	a0,-80(s0)
    50205550:	459d                	li	a1,7
    50205552:	4505                	li	a0,1
    50205554:	ddffe0ef          	jal	ra,50204332 <sys_move_cursor>
    50205558:	fb043703          	ld	a4,-80(s0)
    5020555c:	fb843783          	ld	a5,-72(s0)
    50205560:	40f707b3          	sub	a5,a4,a5
    50205564:	fe042703          	lw	a4,-32(s0)
    50205568:	863a                	mv	a2,a4
    5020556a:	85be                	mv	a1,a5
    5020556c:	00001517          	auipc	a0,0x1
    50205570:	d5c50513          	addi	a0,a0,-676 # 502062c8 <alpha.1388+0xb8>
    50205574:	90dfe0ef          	jal	ra,50203e80 <printf>
    50205578:	f45fe0ef          	jal	ra,502044bc <sys_exit>
    5020557c:	0001                	nop
    5020557e:	70ea                	ld	ra,184(sp)
    50205580:	744a                	ld	s0,176(sp)
    50205582:	6129                	addi	sp,sp,192
    50205584:	8082                	ret

0000000050205586 <add_task>:
    50205586:	7139                	addi	sp,sp,-64
    50205588:	fc06                	sd	ra,56(sp)
    5020558a:	f822                	sd	s0,48(sp)
    5020558c:	0080                	addi	s0,sp,64
    5020558e:	fca43423          	sd	a0,-56(s0)
    50205592:	fc843783          	ld	a5,-56(s0)
    50205596:	439c                	lw	a5,0(a5)
    50205598:	fef42223          	sw	a5,-28(s0)
    5020559c:	fc843783          	ld	a5,-56(s0)
    502055a0:	43dc                	lw	a5,4(a5)
    502055a2:	fef42023          	sw	a5,-32(s0)
    502055a6:	fc843783          	ld	a5,-56(s0)
    502055aa:	479c                	lw	a5,8(a5)
    502055ac:	fcf42e23          	sw	a5,-36(s0)
    502055b0:	fe042623          	sw	zero,-20(s0)
    502055b4:	fe442783          	lw	a5,-28(s0)
    502055b8:	85be                	mv	a1,a5
    502055ba:	4505                	li	a0,1
    502055bc:	d77fe0ef          	jal	ra,50204332 <sys_move_cursor>
    502055c0:	fdc42703          	lw	a4,-36(s0)
    502055c4:	fe042783          	lw	a5,-32(s0)
    502055c8:	863a                	mv	a2,a4
    502055ca:	85be                	mv	a1,a5
    502055cc:	00001517          	auipc	a0,0x1
    502055d0:	d3450513          	addi	a0,a0,-716 # 50206300 <alpha.1388+0xf0>
    502055d4:	8adfe0ef          	jal	ra,50203e80 <printf>
    502055d8:	fe042783          	lw	a5,-32(s0)
    502055dc:	fef42423          	sw	a5,-24(s0)
    502055e0:	a02d                	j	5020560a <add_task+0x84>
    502055e2:	fec42703          	lw	a4,-20(s0)
    502055e6:	fe842783          	lw	a5,-24(s0)
    502055ea:	9fb9                	addw	a5,a5,a4
    502055ec:	2781                	sext.w	a5,a5
    502055ee:	873e                	mv	a4,a5
    502055f0:	000f47b7          	lui	a5,0xf4
    502055f4:	2477879b          	addiw	a5,a5,583
    502055f8:	02f767bb          	remw	a5,a4,a5
    502055fc:	fef42623          	sw	a5,-20(s0)
    50205600:	fe842783          	lw	a5,-24(s0)
    50205604:	2785                	addiw	a5,a5,1
    50205606:	fef42423          	sw	a5,-24(s0)
    5020560a:	fe842703          	lw	a4,-24(s0)
    5020560e:	fdc42783          	lw	a5,-36(s0)
    50205612:	2701                	sext.w	a4,a4
    50205614:	2781                	sext.w	a5,a5
    50205616:	fcf746e3          	blt	a4,a5,502055e2 <add_task+0x5c>
    5020561a:	00001517          	auipc	a0,0x1
    5020561e:	d0e50513          	addi	a0,a0,-754 # 50206328 <alpha.1388+0x118>
    50205622:	85ffe0ef          	jal	ra,50203e80 <printf>
    50205626:	fc843783          	ld	a5,-56(s0)
    5020562a:	6b9c                	ld	a5,16(a5)
    5020562c:	fec42703          	lw	a4,-20(s0)
    50205630:	c398                	sw	a4,0(a5)
    50205632:	e8bfe0ef          	jal	ra,502044bc <sys_exit>
    50205636:	0001                	nop
    50205638:	70e2                	ld	ra,56(sp)
    5020563a:	7442                	ld	s0,48(sp)
    5020563c:	6121                	addi	sp,sp,64
    5020563e:	8082                	ret

0000000050205640 <semaphore_add_task1>:
    50205640:	7139                	addi	sp,sp,-64
    50205642:	fc06                	sd	ra,56(sp)
    50205644:	f822                	sd	s0,48(sp)
    50205646:	0080                	addi	s0,sp,64
    50205648:	4785                	li	a5,1
    5020564a:	fef42423          	sw	a5,-24(s0)
    5020564e:	4585                	li	a1,1
    50205650:	00003517          	auipc	a0,0x3
    50205654:	ea850513          	addi	a0,a0,-344 # 502084f8 <global_count>
    50205658:	bfbfe0ef          	jal	ra,50204252 <mthread_semaphore_init>
    5020565c:	fc043c23          	sd	zero,-40(s0)
    50205660:	fe043023          	sd	zero,-32(s0)
    50205664:	00000797          	auipc	a5,0x0
    50205668:	0e678793          	addi	a5,a5,230 # 5020574a <semaphore_add_task2>
    5020566c:	fcf43c23          	sd	a5,-40(s0)
    50205670:	4789                	li	a5,2
    50205672:	fef42023          	sw	a5,-32(s0)
    50205676:	fc043423          	sd	zero,-56(s0)
    5020567a:	fc043823          	sd	zero,-48(s0)
    5020567e:	00000797          	auipc	a5,0x0
    50205682:	16c78793          	addi	a5,a5,364 # 502057ea <semaphore_add_task3>
    50205686:	fcf43423          	sd	a5,-56(s0)
    5020568a:	4789                	li	a5,2
    5020568c:	fcf42823          	sw	a5,-48(s0)
    50205690:	fd840793          	addi	a5,s0,-40
    50205694:	4605                	li	a2,1
    50205696:	4581                	li	a1,0
    50205698:	853e                	mv	a0,a5
    5020569a:	dbdfe0ef          	jal	ra,50204456 <sys_spawn>
    5020569e:	fc840793          	addi	a5,s0,-56
    502056a2:	4605                	li	a2,1
    502056a4:	4581                	li	a1,0
    502056a6:	853e                	mv	a0,a5
    502056a8:	daffe0ef          	jal	ra,50204456 <sys_spawn>
    502056ac:	fe042623          	sw	zero,-20(s0)
    502056b0:	a88d                	j	50205722 <semaphore_add_task1+0xe2>
    502056b2:	00003517          	auipc	a0,0x3
    502056b6:	e4650513          	addi	a0,a0,-442 # 502084f8 <global_count>
    502056ba:	bc7fe0ef          	jal	ra,50204280 <mthread_semaphore_down>
    502056be:	00003797          	auipc	a5,0x3
    502056c2:	e3a78793          	addi	a5,a5,-454 # 502084f8 <global_count>
    502056c6:	439c                	lw	a5,0(a5)
    502056c8:	2785                	addiw	a5,a5,1
    502056ca:	0007871b          	sext.w	a4,a5
    502056ce:	00003797          	auipc	a5,0x3
    502056d2:	e2a78793          	addi	a5,a5,-470 # 502084f8 <global_count>
    502056d6:	c398                	sw	a4,0(a5)
    502056d8:	00003517          	auipc	a0,0x3
    502056dc:	e2050513          	addi	a0,a0,-480 # 502084f8 <global_count>
    502056e0:	b8dfe0ef          	jal	ra,5020426c <mthread_semaphore_up>
    502056e4:	fe842783          	lw	a5,-24(s0)
    502056e8:	85be                	mv	a1,a5
    502056ea:	4505                	li	a0,1
    502056ec:	c47fe0ef          	jal	ra,50204332 <sys_move_cursor>
    502056f0:	00003797          	auipc	a5,0x3
    502056f4:	e0878793          	addi	a5,a5,-504 # 502084f8 <global_count>
    502056f8:	4398                	lw	a4,0(a5)
    502056fa:	fec42783          	lw	a5,-20(s0)
    502056fe:	2785                	addiw	a5,a5,1
    50205700:	2781                	sext.w	a5,a5
    50205702:	863e                	mv	a2,a5
    50205704:	85ba                	mv	a1,a4
    50205706:	00001517          	auipc	a0,0x1
    5020570a:	c2a50513          	addi	a0,a0,-982 # 50206330 <alpha.1388+0x120>
    5020570e:	f72fe0ef          	jal	ra,50203e80 <printf>
    50205712:	4505                	li	a0,1
    50205714:	b95fe0ef          	jal	ra,502042a8 <sys_sleep>
    50205718:	fec42783          	lw	a5,-20(s0)
    5020571c:	2785                	addiw	a5,a5,1
    5020571e:	fef42623          	sw	a5,-20(s0)
    50205722:	fec42783          	lw	a5,-20(s0)
    50205726:	0007871b          	sext.w	a4,a5
    5020572a:	47a5                	li	a5,9
    5020572c:	f8e7d3e3          	bge	a5,a4,502056b2 <semaphore_add_task1+0x72>
    50205730:	00003517          	auipc	a0,0x3
    50205734:	dc850513          	addi	a0,a0,-568 # 502084f8 <global_count>
    50205738:	b5dfe0ef          	jal	ra,50204294 <mthread_semaphore_destroy>
    5020573c:	d81fe0ef          	jal	ra,502044bc <sys_exit>
    50205740:	0001                	nop
    50205742:	70e2                	ld	ra,56(sp)
    50205744:	7442                	ld	s0,48(sp)
    50205746:	6121                	addi	sp,sp,64
    50205748:	8082                	ret

000000005020574a <semaphore_add_task2>:
    5020574a:	1101                	addi	sp,sp,-32
    5020574c:	ec06                	sd	ra,24(sp)
    5020574e:	e822                	sd	s0,16(sp)
    50205750:	1000                	addi	s0,sp,32
    50205752:	4789                	li	a5,2
    50205754:	fef42423          	sw	a5,-24(s0)
    50205758:	fe042623          	sw	zero,-20(s0)
    5020575c:	a88d                	j	502057ce <semaphore_add_task2+0x84>
    5020575e:	00003517          	auipc	a0,0x3
    50205762:	d9a50513          	addi	a0,a0,-614 # 502084f8 <global_count>
    50205766:	b1bfe0ef          	jal	ra,50204280 <mthread_semaphore_down>
    5020576a:	00003797          	auipc	a5,0x3
    5020576e:	d8e78793          	addi	a5,a5,-626 # 502084f8 <global_count>
    50205772:	439c                	lw	a5,0(a5)
    50205774:	2785                	addiw	a5,a5,1
    50205776:	0007871b          	sext.w	a4,a5
    5020577a:	00003797          	auipc	a5,0x3
    5020577e:	d7e78793          	addi	a5,a5,-642 # 502084f8 <global_count>
    50205782:	c398                	sw	a4,0(a5)
    50205784:	00003517          	auipc	a0,0x3
    50205788:	d7450513          	addi	a0,a0,-652 # 502084f8 <global_count>
    5020578c:	ae1fe0ef          	jal	ra,5020426c <mthread_semaphore_up>
    50205790:	fe842783          	lw	a5,-24(s0)
    50205794:	85be                	mv	a1,a5
    50205796:	4505                	li	a0,1
    50205798:	b9bfe0ef          	jal	ra,50204332 <sys_move_cursor>
    5020579c:	00003797          	auipc	a5,0x3
    502057a0:	d5c78793          	addi	a5,a5,-676 # 502084f8 <global_count>
    502057a4:	4398                	lw	a4,0(a5)
    502057a6:	fec42783          	lw	a5,-20(s0)
    502057aa:	2785                	addiw	a5,a5,1
    502057ac:	2781                	sext.w	a5,a5
    502057ae:	863e                	mv	a2,a5
    502057b0:	85ba                	mv	a1,a4
    502057b2:	00001517          	auipc	a0,0x1
    502057b6:	b7e50513          	addi	a0,a0,-1154 # 50206330 <alpha.1388+0x120>
    502057ba:	ec6fe0ef          	jal	ra,50203e80 <printf>
    502057be:	4505                	li	a0,1
    502057c0:	ae9fe0ef          	jal	ra,502042a8 <sys_sleep>
    502057c4:	fec42783          	lw	a5,-20(s0)
    502057c8:	2785                	addiw	a5,a5,1
    502057ca:	fef42623          	sw	a5,-20(s0)
    502057ce:	fec42783          	lw	a5,-20(s0)
    502057d2:	0007871b          	sext.w	a4,a5
    502057d6:	47cd                	li	a5,19
    502057d8:	f8e7d3e3          	bge	a5,a4,5020575e <semaphore_add_task2+0x14>
    502057dc:	ce1fe0ef          	jal	ra,502044bc <sys_exit>
    502057e0:	0001                	nop
    502057e2:	60e2                	ld	ra,24(sp)
    502057e4:	6442                	ld	s0,16(sp)
    502057e6:	6105                	addi	sp,sp,32
    502057e8:	8082                	ret

00000000502057ea <semaphore_add_task3>:
    502057ea:	1101                	addi	sp,sp,-32
    502057ec:	ec06                	sd	ra,24(sp)
    502057ee:	e822                	sd	s0,16(sp)
    502057f0:	1000                	addi	s0,sp,32
    502057f2:	478d                	li	a5,3
    502057f4:	fef42423          	sw	a5,-24(s0)
    502057f8:	fe042623          	sw	zero,-20(s0)
    502057fc:	a88d                	j	5020586e <semaphore_add_task3+0x84>
    502057fe:	00003517          	auipc	a0,0x3
    50205802:	cfa50513          	addi	a0,a0,-774 # 502084f8 <global_count>
    50205806:	a7bfe0ef          	jal	ra,50204280 <mthread_semaphore_down>
    5020580a:	00003797          	auipc	a5,0x3
    5020580e:	cee78793          	addi	a5,a5,-786 # 502084f8 <global_count>
    50205812:	439c                	lw	a5,0(a5)
    50205814:	2785                	addiw	a5,a5,1
    50205816:	0007871b          	sext.w	a4,a5
    5020581a:	00003797          	auipc	a5,0x3
    5020581e:	cde78793          	addi	a5,a5,-802 # 502084f8 <global_count>
    50205822:	c398                	sw	a4,0(a5)
    50205824:	00003517          	auipc	a0,0x3
    50205828:	cd450513          	addi	a0,a0,-812 # 502084f8 <global_count>
    5020582c:	a41fe0ef          	jal	ra,5020426c <mthread_semaphore_up>
    50205830:	fe842783          	lw	a5,-24(s0)
    50205834:	85be                	mv	a1,a5
    50205836:	4505                	li	a0,1
    50205838:	afbfe0ef          	jal	ra,50204332 <sys_move_cursor>
    5020583c:	00003797          	auipc	a5,0x3
    50205840:	cbc78793          	addi	a5,a5,-836 # 502084f8 <global_count>
    50205844:	4398                	lw	a4,0(a5)
    50205846:	fec42783          	lw	a5,-20(s0)
    5020584a:	2785                	addiw	a5,a5,1
    5020584c:	2781                	sext.w	a5,a5
    5020584e:	863e                	mv	a2,a5
    50205850:	85ba                	mv	a1,a4
    50205852:	00001517          	auipc	a0,0x1
    50205856:	ade50513          	addi	a0,a0,-1314 # 50206330 <alpha.1388+0x120>
    5020585a:	e26fe0ef          	jal	ra,50203e80 <printf>
    5020585e:	4505                	li	a0,1
    50205860:	a49fe0ef          	jal	ra,502042a8 <sys_sleep>
    50205864:	fec42783          	lw	a5,-20(s0)
    50205868:	2785                	addiw	a5,a5,1
    5020586a:	fef42623          	sw	a5,-20(s0)
    5020586e:	fec42783          	lw	a5,-20(s0)
    50205872:	0007871b          	sext.w	a4,a5
    50205876:	47f5                	li	a5,29
    50205878:	f8e7d3e3          	bge	a5,a4,502057fe <semaphore_add_task3+0x14>
    5020587c:	c41fe0ef          	jal	ra,502044bc <sys_exit>
    50205880:	0001                	nop
    50205882:	60e2                	ld	ra,24(sp)
    50205884:	6442                	ld	s0,16(sp)
    50205886:	6105                	addi	sp,sp,32
    50205888:	8082                	ret

000000005020588a <waiting_task1>:
    5020588a:	1101                	addi	sp,sp,-32
    5020588c:	ec06                	sd	ra,24(sp)
    5020588e:	e822                	sd	s0,16(sp)
    50205890:	1000                	addi	s0,sp,32
    50205892:	4785                	li	a5,1
    50205894:	fef42623          	sw	a5,-20(s0)
    50205898:	fec42783          	lw	a5,-20(s0)
    5020589c:	85be                	mv	a1,a5
    5020589e:	4505                	li	a0,1
    502058a0:	a93fe0ef          	jal	ra,50204332 <sys_move_cursor>
    502058a4:	fec42783          	lw	a5,-20(s0)
    502058a8:	85be                	mv	a1,a5
    502058aa:	00001517          	auipc	a0,0x1
    502058ae:	aae50513          	addi	a0,a0,-1362 # 50206358 <alpha.1388+0x148>
    502058b2:	dcefe0ef          	jal	ra,50203e80 <printf>
    502058b6:	450d                	li	a0,3
    502058b8:	c23fe0ef          	jal	ra,502044da <sys_waitpid>
    502058bc:	fec42783          	lw	a5,-20(s0)
    502058c0:	85be                	mv	a1,a5
    502058c2:	4505                	li	a0,1
    502058c4:	a6ffe0ef          	jal	ra,50204332 <sys_move_cursor>
    502058c8:	00001517          	auipc	a0,0x1
    502058cc:	ac050513          	addi	a0,a0,-1344 # 50206388 <alpha.1388+0x178>
    502058d0:	db0fe0ef          	jal	ra,50203e80 <printf>
    502058d4:	be9fe0ef          	jal	ra,502044bc <sys_exit>
    502058d8:	0001                	nop
    502058da:	60e2                	ld	ra,24(sp)
    502058dc:	6442                	ld	s0,16(sp)
    502058de:	6105                	addi	sp,sp,32
    502058e0:	8082                	ret

00000000502058e2 <waiting_task2>:
    502058e2:	1101                	addi	sp,sp,-32
    502058e4:	ec06                	sd	ra,24(sp)
    502058e6:	e822                	sd	s0,16(sp)
    502058e8:	1000                	addi	s0,sp,32
    502058ea:	4789                	li	a5,2
    502058ec:	fef42623          	sw	a5,-20(s0)
    502058f0:	fec42783          	lw	a5,-20(s0)
    502058f4:	85be                	mv	a1,a5
    502058f6:	4505                	li	a0,1
    502058f8:	a3bfe0ef          	jal	ra,50204332 <sys_move_cursor>
    502058fc:	fec42783          	lw	a5,-20(s0)
    50205900:	85be                	mv	a1,a5
    50205902:	00001517          	auipc	a0,0x1
    50205906:	a5650513          	addi	a0,a0,-1450 # 50206358 <alpha.1388+0x148>
    5020590a:	d76fe0ef          	jal	ra,50203e80 <printf>
    5020590e:	450d                	li	a0,3
    50205910:	bcbfe0ef          	jal	ra,502044da <sys_waitpid>
    50205914:	fec42783          	lw	a5,-20(s0)
    50205918:	85be                	mv	a1,a5
    5020591a:	4505                	li	a0,1
    5020591c:	a17fe0ef          	jal	ra,50204332 <sys_move_cursor>
    50205920:	00001517          	auipc	a0,0x1
    50205924:	a6850513          	addi	a0,a0,-1432 # 50206388 <alpha.1388+0x178>
    50205928:	d58fe0ef          	jal	ra,50203e80 <printf>
    5020592c:	b91fe0ef          	jal	ra,502044bc <sys_exit>
    50205930:	0001                	nop
    50205932:	60e2                	ld	ra,24(sp)
    50205934:	6442                	ld	s0,16(sp)
    50205936:	6105                	addi	sp,sp,32
    50205938:	8082                	ret

000000005020593a <waited_task>:
    5020593a:	1101                	addi	sp,sp,-32
    5020593c:	ec06                	sd	ra,24(sp)
    5020593e:	e822                	sd	s0,16(sp)
    50205940:	1000                	addi	s0,sp,32
    50205942:	478d                	li	a5,3
    50205944:	fef42623          	sw	a5,-20(s0)
    50205948:	fec42783          	lw	a5,-20(s0)
    5020594c:	85be                	mv	a1,a5
    5020594e:	4505                	li	a0,1
    50205950:	9e3fe0ef          	jal	ra,50204332 <sys_move_cursor>
    50205954:	00001517          	auipc	a0,0x1
    50205958:	a7450513          	addi	a0,a0,-1420 # 502063c8 <alpha.1388+0x1b8>
    5020595c:	d24fe0ef          	jal	ra,50203e80 <printf>
    50205960:	4515                	li	a0,5
    50205962:	947fe0ef          	jal	ra,502042a8 <sys_sleep>
    50205966:	b57fe0ef          	jal	ra,502044bc <sys_exit>
    5020596a:	0001                	nop
    5020596c:	60e2                	ld	ra,24(sp)
    5020596e:	6442                	ld	s0,16(sp)
    50205970:	6105                	addi	sp,sp,32
    50205972:	8082                	ret
