In archive libtiny_libc.a:

printf.o:     file format elf64-littleriscv


Disassembly of section .text:

0000000000000000 <mini_itoa>:
   0:	715d                	addi	sp,sp,-80
   2:	e4a2                	sd	s0,72(sp)
   4:	0880                	addi	s0,sp,80
   6:	fca43423          	sd	a0,-56(s0)
   a:	fae43823          	sd	a4,-80(s0)
   e:	873e                	mv	a4,a5

0000000000000010 <.LVL1>:
  10:	87ae                	mv	a5,a1

0000000000000012 <.LVL2>:
  12:	fcf42223          	sw	a5,-60(s0)
  16:	87b2                	mv	a5,a2
  18:	fcf42023          	sw	a5,-64(s0)
  1c:	87b6                	mv	a5,a3
  1e:	faf42e23          	sw	a5,-68(s0)
  22:	87ba                	mv	a5,a4
  24:	faf42c23          	sw	a5,-72(s0)
  28:	fb043783          	ld	a5,-80(s0)
  2c:	fef43423          	sd	a5,-24(s0)

0000000000000030 <.LVL3>:
  30:	fe042223          	sw	zero,-28(s0)

0000000000000034 <.LVL4>:
  34:	fc442783          	lw	a5,-60(s0)
  38:	0007871b          	sext.w	a4,a5
  3c:	47c1                	li	a5,16
  3e:	00e7f463          	bgeu	a5,a4,46 <.L2>
  42:	4781                	li	a5,0
  44:	a255                	j	1e8 <.L3>

0000000000000046 <.L2>:
  46:	fc843783          	ld	a5,-56(s0)
  4a:	0007df63          	bgez	a5,68 <.L9>
  4e:	fbc42783          	lw	a5,-68(s0)
  52:	2781                	sext.w	a5,a5
  54:	eb91                	bnez	a5,68 <.L9>
  56:	4785                	li	a5,1
  58:	fef42223          	sw	a5,-28(s0)

000000000000005c <.LVL5>:
  5c:	fc843783          	ld	a5,-56(s0)

0000000000000060 <.LVL6>:
  60:	40f007b3          	neg	a5,a5
  64:	fcf43423          	sd	a5,-56(s0)

0000000000000068 <.L9>:
  68:	fc446783          	lwu	a5,-60(s0)
  6c:	fc843703          	ld	a4,-56(s0)
  70:	02f767b3          	rem	a5,a4,a5
  74:	fcf42e23          	sw	a5,-36(s0)

0000000000000078 <.LVL8>:
  78:	fdc42783          	lw	a5,-36(s0)
  7c:	0007871b          	sext.w	a4,a5
  80:	47a5                	li	a5,9

0000000000000082 <.LVL9>:
  82:	00e7cb63          	blt	a5,a4,98 <.L5>
  86:	fdc42783          	lw	a5,-36(s0)
  8a:	0ff7f793          	andi	a5,a5,255
  8e:	0307879b          	addiw	a5,a5,48
  92:	0ff7f713          	andi	a4,a5,255
  96:	a025                	j	be <.L6>

0000000000000098 <.L5>:
  98:	fc042783          	lw	a5,-64(s0)
  9c:	2781                	sext.w	a5,a5
  9e:	c781                	beqz	a5,a6 <.L7>
  a0:	04100793          	li	a5,65
  a4:	a019                	j	aa <.L8>

00000000000000a6 <.L7>:
  a6:	06100793          	li	a5,97

00000000000000aa <.L8>:
  aa:	fdc42703          	lw	a4,-36(s0)
  ae:	0ff77713          	andi	a4,a4,255
  b2:	9fb9                	addw	a5,a5,a4
  b4:	0ff7f793          	andi	a5,a5,255
  b8:	37d9                	addiw	a5,a5,-10
  ba:	0ff7f713          	andi	a4,a5,255

00000000000000be <.L6>:
  be:	fe843783          	ld	a5,-24(s0)
  c2:	00178693          	addi	a3,a5,1
  c6:	fed43423          	sd	a3,-24(s0)

00000000000000ca <.LVL10>:
  ca:	00e78023          	sb	a4,0(a5)
  ce:	fc446783          	lwu	a5,-60(s0)
  d2:	fc843703          	ld	a4,-56(s0)
  d6:	02f747b3          	div	a5,a4,a5
  da:	fcf43423          	sd	a5,-56(s0)

00000000000000de <.LBE2>:
  de:	fc843783          	ld	a5,-56(s0)
  e2:	f8f043e3          	bgtz	a5,68 <.L9>
  e6:	fe843703          	ld	a4,-24(s0)
  ea:	fb043783          	ld	a5,-80(s0)

00000000000000ee <.LVL12>:
  ee:	40f707b3          	sub	a5,a4,a5
  f2:	fef42023          	sw	a5,-32(s0)

00000000000000f6 <.LVL13>:
  f6:	a005                	j	116 <.L10>

00000000000000f8 <.L11>:
  f8:	fe843783          	ld	a5,-24(s0)
  fc:	00178713          	addi	a4,a5,1
 100:	fee43423          	sd	a4,-24(s0)

0000000000000104 <.LVL15>:
 104:	03000713          	li	a4,48

0000000000000108 <.LVL16>:
 108:	00e78023          	sb	a4,0(a5)
 10c:	fe042783          	lw	a5,-32(s0)
 110:	2785                	addiw	a5,a5,1
 112:	fef42023          	sw	a5,-32(s0)

0000000000000116 <.L10>:
 116:	fe042703          	lw	a4,-32(s0)
 11a:	fb842783          	lw	a5,-72(s0)
 11e:	2701                	sext.w	a4,a4
 120:	2781                	sext.w	a5,a5
 122:	fcf76be3          	bltu	a4,a5,f8 <.L11>
 126:	fe442783          	lw	a5,-28(s0)
 12a:	2781                	sext.w	a5,a5
 12c:	cb99                	beqz	a5,142 <.L12>
 12e:	fe843783          	ld	a5,-24(s0)
 132:	00178713          	addi	a4,a5,1
 136:	fee43423          	sd	a4,-24(s0)

000000000000013a <.LVL18>:
 13a:	02d00713          	li	a4,45

000000000000013e <.LVL19>:
 13e:	00e78023          	sb	a4,0(a5)

0000000000000142 <.L12>:
 142:	fe843783          	ld	a5,-24(s0)
 146:	00078023          	sb	zero,0(a5)
 14a:	fe843703          	ld	a4,-24(s0)
 14e:	fb043783          	ld	a5,-80(s0)
 152:	40f707b3          	sub	a5,a4,a5
 156:	fcf42c23          	sw	a5,-40(s0)

000000000000015a <.LVL20>:
 15a:	fe042023          	sw	zero,-32(s0)
 15e:	a885                	j	1ce <.L13>

0000000000000160 <.L14>:
 160:	fe046783          	lwu	a5,-32(s0)
 164:	fb043703          	ld	a4,-80(s0)
 168:	97ba                	add	a5,a5,a4
 16a:	0007c783          	lbu	a5,0(a5)
 16e:	fcf40ba3          	sb	a5,-41(s0)

0000000000000172 <.LVL23>:
 172:	fd842703          	lw	a4,-40(s0)
 176:	fe042783          	lw	a5,-32(s0)

000000000000017a <.LVL24>:
 17a:	40f707bb          	subw	a5,a4,a5

000000000000017e <.LVL25>:
 17e:	2781                	sext.w	a5,a5
 180:	37fd                	addiw	a5,a5,-1
 182:	2781                	sext.w	a5,a5
 184:	1782                	slli	a5,a5,0x20
 186:	9381                	srli	a5,a5,0x20
 188:	fb043703          	ld	a4,-80(s0)
 18c:	973e                	add	a4,a4,a5
 18e:	fe046783          	lwu	a5,-32(s0)

0000000000000192 <.LVL26>:
 192:	fb043683          	ld	a3,-80(s0)
 196:	97b6                	add	a5,a5,a3

0000000000000198 <.LVL27>:
 198:	00074703          	lbu	a4,0(a4)
 19c:	00e78023          	sb	a4,0(a5)

00000000000001a0 <.LVL28>:
 1a0:	fd842703          	lw	a4,-40(s0)
 1a4:	fe042783          	lw	a5,-32(s0)
 1a8:	40f707bb          	subw	a5,a4,a5
 1ac:	2781                	sext.w	a5,a5
 1ae:	37fd                	addiw	a5,a5,-1
 1b0:	2781                	sext.w	a5,a5
 1b2:	1782                	slli	a5,a5,0x20
 1b4:	9381                	srli	a5,a5,0x20
 1b6:	fb043703          	ld	a4,-80(s0)
 1ba:	97ba                	add	a5,a5,a4
 1bc:	fd744703          	lbu	a4,-41(s0)
 1c0:	00e78023          	sb	a4,0(a5)

00000000000001c4 <.LBE3>:
 1c4:	fe042783          	lw	a5,-32(s0)
 1c8:	2785                	addiw	a5,a5,1
 1ca:	fef42023          	sw	a5,-32(s0)

00000000000001ce <.L13>:
 1ce:	fd842783          	lw	a5,-40(s0)
 1d2:	0017d79b          	srliw	a5,a5,0x1
 1d6:	0007871b          	sext.w	a4,a5
 1da:	fe042783          	lw	a5,-32(s0)
 1de:	2781                	sext.w	a5,a5
 1e0:	f8e7e0e3          	bltu	a5,a4,160 <.L14>
 1e4:	fd842783          	lw	a5,-40(s0)

00000000000001e8 <.L3>:
 1e8:	853e                	mv	a0,a5
 1ea:	6426                	ld	s0,72(sp)

00000000000001ec <.LVL31>:
 1ec:	6161                	addi	sp,sp,80

00000000000001ee <.LVL32>:
 1ee:	8082                	ret

00000000000001f0 <_putc>:
 1f0:	1101                	addi	sp,sp,-32
 1f2:	ec22                	sd	s0,24(sp)
 1f4:	1000                	addi	s0,sp,32
 1f6:	87aa                	mv	a5,a0
 1f8:	feb43023          	sd	a1,-32(s0)
 1fc:	fef42623          	sw	a5,-20(s0)
 200:	fe043783          	ld	a5,-32(s0)
 204:	6798                	ld	a4,8(a5)
 206:	fe043783          	ld	a5,-32(s0)
 20a:	639c                	ld	a5,0(a5)
 20c:	40f707b3          	sub	a5,a4,a5
 210:	2781                	sext.w	a5,a5
 212:	2785                	addiw	a5,a5,1
 214:	0007871b          	sext.w	a4,a5
 218:	fe043783          	ld	a5,-32(s0)
 21c:	4b9c                	lw	a5,16(a5)
 21e:	00f76463          	bltu	a4,a5,226 <.L16>
 222:	4781                	li	a5,0
 224:	a02d                	j	24e <.L17>

0000000000000226 <.L16>:
 226:	fe043783          	ld	a5,-32(s0)
 22a:	679c                	ld	a5,8(a5)
 22c:	00178693          	addi	a3,a5,1
 230:	fe043703          	ld	a4,-32(s0)
 234:	e714                	sd	a3,8(a4)
 236:	fec42703          	lw	a4,-20(s0)
 23a:	0ff77713          	andi	a4,a4,255
 23e:	00e78023          	sb	a4,0(a5)
 242:	fe043783          	ld	a5,-32(s0)
 246:	679c                	ld	a5,8(a5)
 248:	00078023          	sb	zero,0(a5)
 24c:	4785                	li	a5,1

000000000000024e <.L17>:
 24e:	853e                	mv	a0,a5

0000000000000250 <.LVL34>:
 250:	6462                	ld	s0,24(sp)
 252:	6105                	addi	sp,sp,32
 254:	8082                	ret

0000000000000256 <_puts>:
 256:	7139                	addi	sp,sp,-64
 258:	fc22                	sd	s0,56(sp)
 25a:	0080                	addi	s0,sp,64
 25c:	fca43c23          	sd	a0,-40(s0)
 260:	87ae                	mv	a5,a1
 262:	fcc43423          	sd	a2,-56(s0)
 266:	fcf42a23          	sw	a5,-44(s0)
 26a:	fc843783          	ld	a5,-56(s0)
 26e:	4b9c                	lw	a5,16(a5)
 270:	02079713          	slli	a4,a5,0x20
 274:	9301                	srli	a4,a4,0x20
 276:	fc843783          	ld	a5,-56(s0)
 27a:	6794                	ld	a3,8(a5)
 27c:	fc843783          	ld	a5,-56(s0)
 280:	639c                	ld	a5,0(a5)
 282:	40f687b3          	sub	a5,a3,a5
 286:	8f1d                	sub	a4,a4,a5
 288:	fd446783          	lwu	a5,-44(s0)
 28c:	02e7c463          	blt	a5,a4,2b4 <.L19>
 290:	fc843783          	ld	a5,-56(s0)
 294:	4b98                	lw	a4,16(a5)
 296:	fc843783          	ld	a5,-56(s0)
 29a:	6794                	ld	a3,8(a5)
 29c:	fc843783          	ld	a5,-56(s0)
 2a0:	639c                	ld	a5,0(a5)
 2a2:	40f687b3          	sub	a5,a3,a5
 2a6:	2781                	sext.w	a5,a5
 2a8:	40f707bb          	subw	a5,a4,a5
 2ac:	2781                	sext.w	a5,a5
 2ae:	37fd                	addiw	a5,a5,-1
 2b0:	fcf42a23          	sw	a5,-44(s0)

00000000000002b4 <.L19>:
 2b4:	fe042623          	sw	zero,-20(s0)

00000000000002b8 <.LVL37>:
 2b8:	a03d                	j	2e6 <.L20>

00000000000002ba <.L21>:
 2ba:	fec46783          	lwu	a5,-20(s0)
 2be:	fd843703          	ld	a4,-40(s0)
 2c2:	973e                	add	a4,a4,a5
 2c4:	fc843783          	ld	a5,-56(s0)
 2c8:	679c                	ld	a5,8(a5)
 2ca:	00178613          	addi	a2,a5,1
 2ce:	fc843683          	ld	a3,-56(s0)
 2d2:	e690                	sd	a2,8(a3)
 2d4:	00074703          	lbu	a4,0(a4)
 2d8:	00e78023          	sb	a4,0(a5)
 2dc:	fec42783          	lw	a5,-20(s0)
 2e0:	2785                	addiw	a5,a5,1
 2e2:	fef42623          	sw	a5,-20(s0)

00000000000002e6 <.L20>:
 2e6:	fec42703          	lw	a4,-20(s0)
 2ea:	fd442783          	lw	a5,-44(s0)
 2ee:	2701                	sext.w	a4,a4
 2f0:	2781                	sext.w	a5,a5
 2f2:	fcf764e3          	bltu	a4,a5,2ba <.L21>
 2f6:	fc843783          	ld	a5,-56(s0)
 2fa:	679c                	ld	a5,8(a5)
 2fc:	00078023          	sb	zero,0(a5)
 300:	fd442783          	lw	a5,-44(s0)
 304:	853e                	mv	a0,a5

0000000000000306 <.LVL40>:
 306:	7462                	ld	s0,56(sp)

0000000000000308 <.LVL41>:
 308:	6121                	addi	sp,sp,64

000000000000030a <.LVL42>:
 30a:	8082                	ret

000000000000030c <mini_vsnprintf>:
 30c:	7119                	addi	sp,sp,-128
 30e:	fc86                	sd	ra,120(sp)
 310:	f8a2                	sd	s0,112(sp)
 312:	0100                	addi	s0,sp,128
 314:	f8a43c23          	sd	a0,-104(s0)
 318:	87ae                	mv	a5,a1
 31a:	f8c43423          	sd	a2,-120(s0)
 31e:	f8d43023          	sd	a3,-128(s0)
 322:	f8f42a23          	sw	a5,-108(s0)
 326:	f9843783          	ld	a5,-104(s0)
 32a:	fcf43023          	sd	a5,-64(s0)
 32e:	f9843783          	ld	a5,-104(s0)
 332:	fcf43423          	sd	a5,-56(s0)
 336:	f9442783          	lw	a5,-108(s0)
 33a:	fcf42823          	sw	a5,-48(s0)
 33e:	accd                	j	630 <.L24>

0000000000000340 <.L45>:
 340:	fc843703          	ld	a4,-56(s0)

0000000000000344 <.LVL45>:
 344:	fc043783          	ld	a5,-64(s0)
 348:	40f707b3          	sub	a5,a4,a5
 34c:	2781                	sext.w	a5,a5
 34e:	2785                	addiw	a5,a5,1
 350:	0007871b          	sext.w	a4,a5
 354:	fd042783          	lw	a5,-48(s0)
 358:	2ef77d63          	bgeu	a4,a5,652 <.L47>
 35c:	fef44783          	lbu	a5,-17(s0)
 360:	0ff7f713          	andi	a4,a5,255
 364:	02500793          	li	a5,37
 368:	00f70e63          	beq	a4,a5,384 <.L27>
 36c:	fef44783          	lbu	a5,-17(s0)
 370:	2781                	sext.w	a5,a5
 372:	fc040713          	addi	a4,s0,-64
 376:	85ba                	mv	a1,a4
 378:	853e                	mv	a0,a5
 37a:	00000097          	auipc	ra,0x0
 37e:	000080e7          	jalr	ra # 37a <.LVL45+0x36>

0000000000000382 <.LVL46>:
 382:	a47d                	j	630 <.L24>

0000000000000384 <.L27>:
 384:	fe040723          	sb	zero,-18(s0)

0000000000000388 <.LVL47>:
 388:	fe042423          	sw	zero,-24(s0)

000000000000038c <.LVL48>:
 38c:	f8843783          	ld	a5,-120(s0)
 390:	00178713          	addi	a4,a5,1
 394:	f8e43423          	sd	a4,-120(s0)

0000000000000398 <.LVL49>:
 398:	0007c783          	lbu	a5,0(a5)
 39c:	fef407a3          	sb	a5,-17(s0)

00000000000003a0 <.LVL50>:
 3a0:	fef44783          	lbu	a5,-17(s0)
 3a4:	0ff7f713          	andi	a4,a5,255

00000000000003a8 <.LVL51>:
 3a8:	03000793          	li	a5,48

00000000000003ac <.LVL52>:
 3ac:	06f71b63          	bne	a4,a5,422 <.L28>
 3b0:	a891                	j	404 <.L29>

00000000000003b2 <.L31>:
 3b2:	fef44783          	lbu	a5,-17(s0)
 3b6:	0ff7f793          	andi	a5,a5,255
 3ba:	28078e63          	beqz	a5,656 <.L48>
 3be:	fef44783          	lbu	a5,-17(s0)
 3c2:	0ff7f713          	andi	a4,a5,255

00000000000003c6 <.LVL54>:
 3c6:	02f00793          	li	a5,47
 3ca:	04e7fc63          	bgeu	a5,a4,422 <.L28>
 3ce:	fef44783          	lbu	a5,-17(s0)
 3d2:	0ff7f713          	andi	a4,a5,255
 3d6:	03900793          	li	a5,57
 3da:	04e7e463          	bltu	a5,a4,422 <.L28>
 3de:	fee44703          	lbu	a4,-18(s0)
 3e2:	87ba                	mv	a5,a4
 3e4:	0027979b          	slliw	a5,a5,0x2
 3e8:	9fb9                	addw	a5,a5,a4
 3ea:	0017979b          	slliw	a5,a5,0x1
 3ee:	0ff7f793          	andi	a5,a5,255
 3f2:	fef44703          	lbu	a4,-17(s0)
 3f6:	9fb9                	addw	a5,a5,a4
 3f8:	0ff7f793          	andi	a5,a5,255
 3fc:	fd07879b          	addiw	a5,a5,-48
 400:	fef40723          	sb	a5,-18(s0)

0000000000000404 <.L29>:
 404:	f8843783          	ld	a5,-120(s0)
 408:	00178713          	addi	a4,a5,1
 40c:	f8e43423          	sd	a4,-120(s0)

0000000000000410 <.LVL56>:
 410:	0007c783          	lbu	a5,0(a5)
 414:	fef407a3          	sb	a5,-17(s0)

0000000000000418 <.LVL57>:
 418:	fef44783          	lbu	a5,-17(s0)
 41c:	0ff7f793          	andi	a5,a5,255

0000000000000420 <.LVL58>:
 420:	fbc9                	bnez	a5,3b2 <.L31>

0000000000000422 <.L28>:
 422:	fef44783          	lbu	a5,-17(s0)
 426:	0ff7f713          	andi	a4,a5,255
 42a:	06c00793          	li	a5,108
 42e:	00f71f63          	bne	a4,a5,44c <.L32>
 432:	4785                	li	a5,1
 434:	fef42423          	sw	a5,-24(s0)

0000000000000438 <.LVL60>:
 438:	f8843783          	ld	a5,-120(s0)

000000000000043c <.LVL61>:
 43c:	00178713          	addi	a4,a5,1
 440:	f8e43423          	sd	a4,-120(s0)

0000000000000444 <.LVL62>:
 444:	0007c783          	lbu	a5,0(a5)
 448:	fef407a3          	sb	a5,-17(s0)

000000000000044c <.L32>:
 44c:	fef44783          	lbu	a5,-17(s0)
 450:	2781                	sext.w	a5,a5
 452:	20078463          	beqz	a5,65a <.L49>
 456:	873e                	mv	a4,a5
 458:	1c074063          	bltz	a4,618 <.L34>
 45c:	86be                	mv	a3,a5
 45e:	07800713          	li	a4,120
 462:	1ad74b63          	blt	a4,a3,618 <.L34>
 466:	86be                	mv	a3,a5
 468:	05800713          	li	a4,88
 46c:	1ae6c663          	blt	a3,a4,618 <.L34>
 470:	fa87869b          	addiw	a3,a5,-88
 474:	0006871b          	sext.w	a4,a3
 478:	02000793          	li	a5,32
 47c:	18e7ee63          	bltu	a5,a4,618 <.L34>
 480:	02069793          	slli	a5,a3,0x20
 484:	9381                	srli	a5,a5,0x20
 486:	00279713          	slli	a4,a5,0x2
 48a:	00000797          	auipc	a5,0x0
 48e:	00078793          	mv	a5,a5
 492:	97ba                	add	a5,a5,a4
 494:	439c                	lw	a5,0(a5)
 496:	0007871b          	sext.w	a4,a5
 49a:	00000797          	auipc	a5,0x0
 49e:	00078793          	mv	a5,a5
 4a2:	97ba                	add	a5,a5,a4
 4a4:	8782                	jr	a5

00000000000004a6 <.L39>:
 4a6:	4785                	li	a5,1
 4a8:	fef42423          	sw	a5,-24(s0)

00000000000004ac <.LVL64>:
 4ac:	a251                	j	630 <.L24>

00000000000004ae <.L37>:
 4ae:	fe842783          	lw	a5,-24(s0)
 4b2:	2781                	sext.w	a5,a5
 4b4:	ef81                	bnez	a5,4cc <.L41>
 4b6:	f8043783          	ld	a5,-128(s0)
 4ba:	00878713          	addi	a4,a5,8 # 4a2 <.L32+0x56>
 4be:	f8e43023          	sd	a4,-128(s0)
 4c2:	439c                	lw	a5,0(a5)
 4c4:	02079513          	slli	a0,a5,0x20
 4c8:	9101                	srli	a0,a0,0x20
 4ca:	a809                	j	4dc <.L42>

00000000000004cc <.L41>:
 4cc:	f8043783          	ld	a5,-128(s0)
 4d0:	00878713          	addi	a4,a5,8
 4d4:	f8e43023          	sd	a4,-128(s0)
 4d8:	639c                	ld	a5,0(a5)
 4da:	853e                	mv	a0,a5

00000000000004dc <.L42>:
 4dc:	fef44783          	lbu	a5,-17(s0)
 4e0:	0007871b          	sext.w	a4,a5
 4e4:	07500793          	li	a5,117
 4e8:	40f707b3          	sub	a5,a4,a5
 4ec:	0017b793          	seqz	a5,a5
 4f0:	0ff7f793          	andi	a5,a5,255
 4f4:	0007869b          	sext.w	a3,a5
 4f8:	fee44783          	lbu	a5,-18(s0)
 4fc:	2781                	sext.w	a5,a5
 4fe:	fa840713          	addi	a4,s0,-88
 502:	4601                	li	a2,0
 504:	45a9                	li	a1,10
 506:	00000097          	auipc	ra,0x0
 50a:	000080e7          	jalr	ra # 506 <.L42+0x2a>

000000000000050e <.LVL66>:
 50e:	87aa                	mv	a5,a0
 510:	fcf42e23          	sw	a5,-36(s0)

0000000000000514 <.LVL67>:
 514:	fc040693          	addi	a3,s0,-64
 518:	fdc42703          	lw	a4,-36(s0)
 51c:	fa840793          	addi	a5,s0,-88

0000000000000520 <.LVL68>:
 520:	8636                	mv	a2,a3
 522:	85ba                	mv	a1,a4
 524:	853e                	mv	a0,a5
 526:	00000097          	auipc	ra,0x0
 52a:	000080e7          	jalr	ra # 526 <.LVL68+0x6>

000000000000052e <.LVL69>:
 52e:	fe042423          	sw	zero,-24(s0)
 532:	a8fd                	j	630 <.L24>

0000000000000534 <.L35>:
 534:	fe842783          	lw	a5,-24(s0)
 538:	2781                	sext.w	a5,a5
 53a:	ef81                	bnez	a5,552 <.L43>
 53c:	f8043783          	ld	a5,-128(s0)
 540:	00878713          	addi	a4,a5,8
 544:	f8e43023          	sd	a4,-128(s0)
 548:	439c                	lw	a5,0(a5)
 54a:	02079513          	slli	a0,a5,0x20
 54e:	9101                	srli	a0,a0,0x20
 550:	a809                	j	562 <.L44>

0000000000000552 <.L43>:
 552:	f8043783          	ld	a5,-128(s0)
 556:	00878713          	addi	a4,a5,8
 55a:	f8e43023          	sd	a4,-128(s0)
 55e:	639c                	ld	a5,0(a5)
 560:	853e                	mv	a0,a5

0000000000000562 <.L44>:
 562:	fef44783          	lbu	a5,-17(s0)
 566:	0007871b          	sext.w	a4,a5
 56a:	05800793          	li	a5,88
 56e:	40f707b3          	sub	a5,a4,a5
 572:	0017b793          	seqz	a5,a5
 576:	0ff7f793          	andi	a5,a5,255
 57a:	0007861b          	sext.w	a2,a5
 57e:	fee44783          	lbu	a5,-18(s0)
 582:	2781                	sext.w	a5,a5
 584:	fa840713          	addi	a4,s0,-88
 588:	4685                	li	a3,1
 58a:	45c1                	li	a1,16
 58c:	00000097          	auipc	ra,0x0
 590:	000080e7          	jalr	ra # 58c <.L44+0x2a>

0000000000000594 <.LVL72>:
 594:	87aa                	mv	a5,a0
 596:	fcf42e23          	sw	a5,-36(s0)

000000000000059a <.LVL73>:
 59a:	fc040693          	addi	a3,s0,-64
 59e:	fdc42703          	lw	a4,-36(s0)
 5a2:	fa840793          	addi	a5,s0,-88

00000000000005a6 <.LVL74>:
 5a6:	8636                	mv	a2,a3
 5a8:	85ba                	mv	a1,a4
 5aa:	853e                	mv	a0,a5
 5ac:	00000097          	auipc	ra,0x0
 5b0:	000080e7          	jalr	ra # 5ac <.LVL74+0x6>

00000000000005b4 <.LVL75>:
 5b4:	fe042423          	sw	zero,-24(s0)
 5b8:	a8a5                	j	630 <.L24>

00000000000005ba <.L40>:
 5ba:	f8043783          	ld	a5,-128(s0)
 5be:	00878713          	addi	a4,a5,8
 5c2:	f8e43023          	sd	a4,-128(s0)
 5c6:	439c                	lw	a5,0(a5)
 5c8:	0ff7f793          	andi	a5,a5,255
 5cc:	2781                	sext.w	a5,a5
 5ce:	fc040713          	addi	a4,s0,-64
 5d2:	85ba                	mv	a1,a4
 5d4:	853e                	mv	a0,a5
 5d6:	00000097          	auipc	ra,0x0
 5da:	000080e7          	jalr	ra # 5d6 <.L40+0x1c>

00000000000005de <.LVL78>:
 5de:	a889                	j	630 <.L24>

00000000000005e0 <.L38>:
 5e0:	f8043783          	ld	a5,-128(s0)
 5e4:	00878713          	addi	a4,a5,8
 5e8:	f8e43023          	sd	a4,-128(s0)
 5ec:	639c                	ld	a5,0(a5)
 5ee:	fef43023          	sd	a5,-32(s0)
 5f2:	fe043503          	ld	a0,-32(s0)
 5f6:	00000097          	auipc	ra,0x0
 5fa:	000080e7          	jalr	ra # 5f6 <.L38+0x16>

00000000000005fe <.LVL79>:
 5fe:	87aa                	mv	a5,a0
 600:	2781                	sext.w	a5,a5
 602:	fc040713          	addi	a4,s0,-64
 606:	863a                	mv	a2,a4
 608:	85be                	mv	a1,a5
 60a:	fe043503          	ld	a0,-32(s0)
 60e:	00000097          	auipc	ra,0x0
 612:	000080e7          	jalr	ra # 60e <.LVL79+0x10>

0000000000000616 <.LVL80>:
 616:	a829                	j	630 <.L24>

0000000000000618 <.L34>:
 618:	fef44783          	lbu	a5,-17(s0)
 61c:	2781                	sext.w	a5,a5
 61e:	fc040713          	addi	a4,s0,-64
 622:	85ba                	mv	a1,a4
 624:	853e                	mv	a0,a5
 626:	00000097          	auipc	ra,0x0
 62a:	000080e7          	jalr	ra # 626 <.L34+0xe>

000000000000062e <.LVL81>:
 62e:	0001                	nop

0000000000000630 <.L24>:
 630:	f8843783          	ld	a5,-120(s0)
 634:	00178713          	addi	a4,a5,1
 638:	f8e43423          	sd	a4,-120(s0)

000000000000063c <.LVL83>:
 63c:	0007c783          	lbu	a5,0(a5)
 640:	fef407a3          	sb	a5,-17(s0)

0000000000000644 <.LVL84>:
 644:	fef44783          	lbu	a5,-17(s0)
 648:	0ff7f793          	andi	a5,a5,255

000000000000064c <.LVL85>:
 64c:	ce079ae3          	bnez	a5,340 <.L45>
 650:	a031                	j	65c <.L26>

0000000000000652 <.L47>:
 652:	0001                	nop
 654:	a021                	j	65c <.L26>

0000000000000656 <.L48>:
 656:	0001                	nop
 658:	a011                	j	65c <.L26>

000000000000065a <.L49>:
 65a:	0001                	nop

000000000000065c <.L26>:
 65c:	fc843703          	ld	a4,-56(s0)
 660:	fc043783          	ld	a5,-64(s0)
 664:	40f707b3          	sub	a5,a4,a5
 668:	2781                	sext.w	a5,a5
 66a:	853e                	mv	a0,a5
 66c:	70e6                	ld	ra,120(sp)
 66e:	7446                	ld	s0,112(sp)

0000000000000670 <.LVL90>:
 670:	6109                	addi	sp,sp,128

0000000000000672 <.LVL91>:
 672:	8082                	ret

0000000000000674 <vprintf>:
 674:	7169                	addi	sp,sp,-304
 676:	f606                	sd	ra,296(sp)
 678:	f222                	sd	s0,288(sp)
 67a:	1a00                	addi	s0,sp,304
 67c:	eca43c23          	sd	a0,-296(s0)
 680:	ecb43823          	sd	a1,-304(s0)
 684:	ed043783          	ld	a5,-304(s0)
 688:	fef43023          	sd	a5,-32(s0)
 68c:	fe043703          	ld	a4,-32(s0)
 690:	ee040793          	addi	a5,s0,-288
 694:	86ba                	mv	a3,a4
 696:	ed843603          	ld	a2,-296(s0)
 69a:	10000593          	li	a1,256

000000000000069e <.LVL93>:
 69e:	853e                	mv	a0,a5

00000000000006a0 <.LVL94>:
 6a0:	00000097          	auipc	ra,0x0
 6a4:	000080e7          	jalr	ra # 6a0 <.LVL94>

00000000000006a8 <.LVL95>:
 6a8:	87aa                	mv	a5,a0
 6aa:	fef42623          	sw	a5,-20(s0)

00000000000006ae <.LVL96>:
 6ae:	fec42783          	lw	a5,-20(s0)

00000000000006b2 <.LVL97>:
 6b2:	ff040713          	addi	a4,s0,-16
 6b6:	97ba                	add	a5,a5,a4
 6b8:	ee078823          	sb	zero,-272(a5)
 6bc:	ee040793          	addi	a5,s0,-288
 6c0:	853e                	mv	a0,a5
 6c2:	00000097          	auipc	ra,0x0
 6c6:	000080e7          	jalr	ra # 6c2 <.LVL97+0x10>

00000000000006ca <.LVL98>:
 6ca:	fec42783          	lw	a5,-20(s0)
 6ce:	853e                	mv	a0,a5
 6d0:	70b2                	ld	ra,296(sp)
 6d2:	7412                	ld	s0,288(sp)

00000000000006d4 <.LVL99>:
 6d4:	6155                	addi	sp,sp,304

00000000000006d6 <.LVL100>:
 6d6:	8082                	ret

00000000000006d8 <printf>:
 6d8:	7159                	addi	sp,sp,-112
 6da:	f406                	sd	ra,40(sp)
 6dc:	f022                	sd	s0,32(sp)
 6de:	1800                	addi	s0,sp,48
 6e0:	fca43c23          	sd	a0,-40(s0)
 6e4:	e40c                	sd	a1,8(s0)
 6e6:	e810                	sd	a2,16(s0)
 6e8:	ec14                	sd	a3,24(s0)
 6ea:	f018                	sd	a4,32(s0)
 6ec:	f41c                	sd	a5,40(s0)
 6ee:	03043823          	sd	a6,48(s0)
 6f2:	03143c23          	sd	a7,56(s0)
 6f6:	fe042623          	sw	zero,-20(s0)

00000000000006fa <.LVL102>:
 6fa:	00000097          	auipc	ra,0x0
 6fe:	000080e7          	jalr	ra # 6fa <.LVL102>

0000000000000702 <.LVL103>:
 702:	04040793          	addi	a5,s0,64

0000000000000706 <.LVL104>:
 706:	fcf43823          	sd	a5,-48(s0)
 70a:	fd043783          	ld	a5,-48(s0)
 70e:	fc878793          	addi	a5,a5,-56

0000000000000712 <.LVL105>:
 712:	fef43023          	sd	a5,-32(s0)
 716:	fe043783          	ld	a5,-32(s0)
 71a:	85be                	mv	a1,a5
 71c:	fd843503          	ld	a0,-40(s0)
 720:	00000097          	auipc	ra,0x0
 724:	000080e7          	jalr	ra # 720 <.LVL105+0xe>

0000000000000728 <.LVL106>:
 728:	87aa                	mv	a5,a0
 72a:	fef42623          	sw	a5,-20(s0)

000000000000072e <.LVL107>:
 72e:	fec42783          	lw	a5,-20(s0)

0000000000000732 <.LVL108>:
 732:	853e                	mv	a0,a5
 734:	70a2                	ld	ra,40(sp)
 736:	7402                	ld	s0,32(sp)
 738:	6165                	addi	sp,sp,112

000000000000073a <.LVL109>:
 73a:	8082                	ret

000000000000073c <puts>:
 73c:	1101                	addi	sp,sp,-32
 73e:	ec06                	sd	ra,24(sp)
 740:	e822                	sd	s0,16(sp)
 742:	1000                	addi	s0,sp,32
 744:	fea43423          	sd	a0,-24(s0)
 748:	fe843583          	ld	a1,-24(s0)
 74c:	00000517          	auipc	a0,0x0
 750:	00050513          	mv	a0,a0

0000000000000754 <.LVL111>:
 754:	00000097          	auipc	ra,0x0
 758:	000080e7          	jalr	ra # 754 <.LVL111>

000000000000075c <.LVL112>:
 75c:	87aa                	mv	a5,a0
 75e:	853e                	mv	a0,a5
 760:	60e2                	ld	ra,24(sp)
 762:	6442                	ld	s0,16(sp)

0000000000000764 <.LVL113>:
 764:	6105                	addi	sp,sp,32

0000000000000766 <.LVL114>:
 766:	8082                	ret

string.o:     file format elf64-littleriscv


Disassembly of section .text:

0000000000000000 <strlen>:
   0:	7179                	addi	sp,sp,-48
   2:	f422                	sd	s0,40(sp)
   4:	1800                	addi	s0,sp,48
   6:	fca43c23          	sd	a0,-40(s0)
   a:	fe042623          	sw	zero,-20(s0)

000000000000000e <.LVL1>:
   e:	a031                	j	1a <.L2>

0000000000000010 <.L3>:
  10:	fec42783          	lw	a5,-20(s0)
  14:	2785                	addiw	a5,a5,1
  16:	fef42623          	sw	a5,-20(s0)

000000000000001a <.L2>:
  1a:	fec42783          	lw	a5,-20(s0)
  1e:	fd843703          	ld	a4,-40(s0)
  22:	97ba                	add	a5,a5,a4
  24:	0007c783          	lbu	a5,0(a5)
  28:	f7e5                	bnez	a5,10 <.L3>
  2a:	fec42783          	lw	a5,-20(s0)
  2e:	853e                	mv	a0,a5

0000000000000030 <.LVL3>:
  30:	7422                	ld	s0,40(sp)

0000000000000032 <.LVL4>:
  32:	6145                	addi	sp,sp,48

0000000000000034 <.LVL5>:
  34:	8082                	ret

0000000000000036 <memcpy>:
  36:	7179                	addi	sp,sp,-48
  38:	f422                	sd	s0,40(sp)
  3a:	1800                	addi	s0,sp,48
  3c:	fea43423          	sd	a0,-24(s0)
  40:	feb43023          	sd	a1,-32(s0)
  44:	87b2                	mv	a5,a2
  46:	fcf42e23          	sw	a5,-36(s0)
  4a:	a035                	j	76 <.L6>

000000000000004c <.L7>:
  4c:	fe043703          	ld	a4,-32(s0)
  50:	00170793          	addi	a5,a4,1
  54:	fef43023          	sd	a5,-32(s0)

0000000000000058 <.LVL8>:
  58:	fe843783          	ld	a5,-24(s0)

000000000000005c <.LVL9>:
  5c:	00178693          	addi	a3,a5,1
  60:	fed43423          	sd	a3,-24(s0)

0000000000000064 <.LVL10>:
  64:	00074703          	lbu	a4,0(a4)
  68:	00e78023          	sb	a4,0(a5)
  6c:	fdc42783          	lw	a5,-36(s0)
  70:	37fd                	addiw	a5,a5,-1
  72:	fcf42e23          	sw	a5,-36(s0)

0000000000000076 <.L6>:
  76:	fdc42783          	lw	a5,-36(s0)
  7a:	2781                	sext.w	a5,a5
  7c:	fbe1                	bnez	a5,4c <.L7>
  7e:	0001                	nop
  80:	853e                	mv	a0,a5
  82:	7422                	ld	s0,40(sp)

0000000000000084 <.LVL12>:
  84:	6145                	addi	sp,sp,48

0000000000000086 <.LVL13>:
  86:	8082                	ret

0000000000000088 <memset>:
  88:	7139                	addi	sp,sp,-64
  8a:	fc22                	sd	s0,56(sp)
  8c:	0080                	addi	s0,sp,64
  8e:	fca43c23          	sd	a0,-40(s0)
  92:	87ae                	mv	a5,a1
  94:	fcc43423          	sd	a2,-56(s0)
  98:	fcf42a23          	sw	a5,-44(s0)
  9c:	fd843783          	ld	a5,-40(s0)
  a0:	fef43423          	sd	a5,-24(s0)

00000000000000a4 <.LVL15>:
  a4:	a015                	j	c8 <.L9>

00000000000000a6 <.L10>:
  a6:	fe843783          	ld	a5,-24(s0)

00000000000000aa <.LVL17>:
  aa:	00178713          	addi	a4,a5,1
  ae:	fee43423          	sd	a4,-24(s0)

00000000000000b2 <.LVL18>:
  b2:	fd442703          	lw	a4,-44(s0)

00000000000000b6 <.LVL19>:
  b6:	0ff77713          	andi	a4,a4,255
  ba:	00e78023          	sb	a4,0(a5)
  be:	fc843783          	ld	a5,-56(s0)
  c2:	17fd                	addi	a5,a5,-1
  c4:	fcf43423          	sd	a5,-56(s0)

00000000000000c8 <.L9>:
  c8:	fc843783          	ld	a5,-56(s0)
  cc:	ffe9                	bnez	a5,a6 <.L10>

00000000000000ce <.LVL21>:
  ce:	0001                	nop
  d0:	853e                	mv	a0,a5
  d2:	7462                	ld	s0,56(sp)

00000000000000d4 <.LVL22>:
  d4:	6121                	addi	sp,sp,64

00000000000000d6 <.LVL23>:
  d6:	8082                	ret

00000000000000d8 <bzero>:
  d8:	1101                	addi	sp,sp,-32
  da:	ec06                	sd	ra,24(sp)
  dc:	e822                	sd	s0,16(sp)
  de:	1000                	addi	s0,sp,32
  e0:	fea43423          	sd	a0,-24(s0)
  e4:	87ae                	mv	a5,a1
  e6:	fef42223          	sw	a5,-28(s0)
  ea:	fe446783          	lwu	a5,-28(s0)
  ee:	863e                	mv	a2,a5
  f0:	4581                	li	a1,0

00000000000000f2 <.LVL25>:
  f2:	fe843503          	ld	a0,-24(s0)
  f6:	00000097          	auipc	ra,0x0
  fa:	000080e7          	jalr	ra # f6 <.LVL25+0x4>

00000000000000fe <.LVL26>:
  fe:	0001                	nop
 100:	60e2                	ld	ra,24(sp)
 102:	6442                	ld	s0,16(sp)

0000000000000104 <.LVL27>:
 104:	6105                	addi	sp,sp,32

0000000000000106 <.LVL28>:
 106:	8082                	ret

0000000000000108 <strcmp>:
 108:	1101                	addi	sp,sp,-32
 10a:	ec22                	sd	s0,24(sp)
 10c:	1000                	addi	s0,sp,32
 10e:	fea43423          	sd	a0,-24(s0)
 112:	feb43023          	sd	a1,-32(s0)
 116:	a0a1                	j	15e <.L13>

0000000000000118 <.L17>:
 118:	fe843783          	ld	a5,-24(s0)
 11c:	0007c703          	lbu	a4,0(a5)
 120:	fe043783          	ld	a5,-32(s0)
 124:	0007c783          	lbu	a5,0(a5)
 128:	02f70163          	beq	a4,a5,14a <.L14>
 12c:	fe843783          	ld	a5,-24(s0)
 130:	0007c783          	lbu	a5,0(a5)
 134:	0007871b          	sext.w	a4,a5
 138:	fe043783          	ld	a5,-32(s0)
 13c:	0007c783          	lbu	a5,0(a5)
 140:	2781                	sext.w	a5,a5
 142:	40f707bb          	subw	a5,a4,a5
 146:	2781                	sext.w	a5,a5
 148:	a099                	j	18e <.L15>

000000000000014a <.L14>:
 14a:	fe843783          	ld	a5,-24(s0)
 14e:	0785                	addi	a5,a5,1
 150:	fef43423          	sd	a5,-24(s0)

0000000000000154 <.LVL31>:
 154:	fe043783          	ld	a5,-32(s0)

0000000000000158 <.LVL32>:
 158:	0785                	addi	a5,a5,1
 15a:	fef43023          	sd	a5,-32(s0)

000000000000015e <.L13>:
 15e:	fe843783          	ld	a5,-24(s0)
 162:	0007c783          	lbu	a5,0(a5)
 166:	c791                	beqz	a5,172 <.L16>
 168:	fe043783          	ld	a5,-32(s0)
 16c:	0007c783          	lbu	a5,0(a5)
 170:	f7c5                	bnez	a5,118 <.L17>

0000000000000172 <.L16>:
 172:	fe843783          	ld	a5,-24(s0)
 176:	0007c783          	lbu	a5,0(a5)
 17a:	0007871b          	sext.w	a4,a5
 17e:	fe043783          	ld	a5,-32(s0)
 182:	0007c783          	lbu	a5,0(a5)
 186:	2781                	sext.w	a5,a5
 188:	40f707bb          	subw	a5,a4,a5
 18c:	2781                	sext.w	a5,a5

000000000000018e <.L15>:
 18e:	853e                	mv	a0,a5
 190:	6462                	ld	s0,24(sp)

0000000000000192 <.LVL34>:
 192:	6105                	addi	sp,sp,32

0000000000000194 <.LVL35>:
 194:	8082                	ret

0000000000000196 <strcpy>:
 196:	7179                	addi	sp,sp,-48
 198:	f422                	sd	s0,40(sp)
 19a:	1800                	addi	s0,sp,48
 19c:	fca43c23          	sd	a0,-40(s0)
 1a0:	fcb43823          	sd	a1,-48(s0)
 1a4:	fd843783          	ld	a5,-40(s0)
 1a8:	fef43423          	sd	a5,-24(s0)

00000000000001ac <.LVL37>:
 1ac:	a00d                	j	1ce <.L19>

00000000000001ae <.L20>:
 1ae:	fd043703          	ld	a4,-48(s0)
 1b2:	00170793          	addi	a5,a4,1
 1b6:	fcf43823          	sd	a5,-48(s0)

00000000000001ba <.LVL39>:
 1ba:	fd843783          	ld	a5,-40(s0)

00000000000001be <.LVL40>:
 1be:	00178693          	addi	a3,a5,1
 1c2:	fcd43c23          	sd	a3,-40(s0)

00000000000001c6 <.LVL41>:
 1c6:	00074703          	lbu	a4,0(a4)
 1ca:	00e78023          	sb	a4,0(a5)

00000000000001ce <.L19>:
 1ce:	fd043783          	ld	a5,-48(s0)
 1d2:	0007c783          	lbu	a5,0(a5)
 1d6:	ffe1                	bnez	a5,1ae <.L20>
 1d8:	fd843783          	ld	a5,-40(s0)
 1dc:	00078023          	sb	zero,0(a5)
 1e0:	fe843783          	ld	a5,-24(s0)
 1e4:	853e                	mv	a0,a5

00000000000001e6 <.LVL43>:
 1e6:	7422                	ld	s0,40(sp)

00000000000001e8 <.LVL44>:
 1e8:	6145                	addi	sp,sp,48

00000000000001ea <.LVL45>:
 1ea:	8082                	ret

00000000000001ec <strcat>:
 1ec:	7179                	addi	sp,sp,-48
 1ee:	f422                	sd	s0,40(sp)
 1f0:	1800                	addi	s0,sp,48
 1f2:	fca43c23          	sd	a0,-40(s0)
 1f6:	fcb43823          	sd	a1,-48(s0)
 1fa:	fd843783          	ld	a5,-40(s0)
 1fe:	fef43423          	sd	a5,-24(s0)

0000000000000202 <.LVL47>:
 202:	a031                	j	20e <.L23>

0000000000000204 <.L24>:
 204:	fd843783          	ld	a5,-40(s0)
 208:	0785                	addi	a5,a5,1
 20a:	fcf43c23          	sd	a5,-40(s0)

000000000000020e <.L23>:
 20e:	fd843783          	ld	a5,-40(s0)
 212:	0007c783          	lbu	a5,0(a5)
 216:	f7fd                	bnez	a5,204 <.L24>
 218:	a00d                	j	23a <.L25>

000000000000021a <.L26>:
 21a:	fd043703          	ld	a4,-48(s0)
 21e:	00170793          	addi	a5,a4,1
 222:	fcf43823          	sd	a5,-48(s0)

0000000000000226 <.LVL51>:
 226:	fd843783          	ld	a5,-40(s0)

000000000000022a <.LVL52>:
 22a:	00178693          	addi	a3,a5,1
 22e:	fcd43c23          	sd	a3,-40(s0)

0000000000000232 <.LVL53>:
 232:	00074703          	lbu	a4,0(a4)
 236:	00e78023          	sb	a4,0(a5)

000000000000023a <.L25>:
 23a:	fd043783          	ld	a5,-48(s0)
 23e:	0007c783          	lbu	a5,0(a5)
 242:	ffe1                	bnez	a5,21a <.L26>
 244:	fd843783          	ld	a5,-40(s0)
 248:	00078023          	sb	zero,0(a5)
 24c:	fe843783          	ld	a5,-24(s0)
 250:	853e                	mv	a0,a5

0000000000000252 <.LVL55>:
 252:	7422                	ld	s0,40(sp)

0000000000000254 <.LVL56>:
 254:	6145                	addi	sp,sp,48

0000000000000256 <.LVL57>:
 256:	8082                	ret

0000000000000258 <strtok>:
 258:	7139                	addi	sp,sp,-64
 25a:	fc06                	sd	ra,56(sp)
 25c:	f822                	sd	s0,48(sp)
 25e:	0080                	addi	s0,sp,64
 260:	fca43c23          	sd	a0,-40(s0)
 264:	fcb43823          	sd	a1,-48(s0)
 268:	87b2                	mv	a5,a2
 26a:	fcf407a3          	sb	a5,-49(s0)
 26e:	fd043503          	ld	a0,-48(s0)

0000000000000272 <.LVL59>:
 272:	00000097          	auipc	ra,0x0
 276:	000080e7          	jalr	ra # 272 <.LVL59>

000000000000027a <.LVL60>:
 27a:	87aa                	mv	a5,a0
 27c:	fef42423          	sw	a5,-24(s0)

0000000000000280 <.LVL61>:
 280:	fe842783          	lw	a5,-24(s0)
 284:	2781                	sext.w	a5,a5

0000000000000286 <.LVL62>:
 286:	e399                	bnez	a5,28c <.L29>
 288:	4781                	li	a5,0
 28a:	a8a5                	j	302 <.L30>

000000000000028c <.L29>:
 28c:	fe042623          	sw	zero,-20(s0)

0000000000000290 <.LVL63>:
 290:	a085                	j	2f0 <.L31>

0000000000000292 <.L34>:
 292:	fec42783          	lw	a5,-20(s0)
 296:	fd043703          	ld	a4,-48(s0)
 29a:	97ba                	add	a5,a5,a4
 29c:	0007c703          	lbu	a4,0(a5)
 2a0:	fcf44783          	lbu	a5,-49(s0)
 2a4:	0ff7f793          	andi	a5,a5,255
 2a8:	02e78163          	beq	a5,a4,2ca <.L32>
 2ac:	fec42783          	lw	a5,-20(s0)
 2b0:	fd043703          	ld	a4,-48(s0)
 2b4:	973e                	add	a4,a4,a5
 2b6:	fec42783          	lw	a5,-20(s0)
 2ba:	fd843683          	ld	a3,-40(s0)
 2be:	97b6                	add	a5,a5,a3
 2c0:	00074703          	lbu	a4,0(a4)
 2c4:	00e78023          	sb	a4,0(a5)
 2c8:	a839                	j	2e6 <.L35>

00000000000002ca <.L32>:
 2ca:	fec42783          	lw	a5,-20(s0)
 2ce:	fd843703          	ld	a4,-40(s0)
 2d2:	97ba                	add	a5,a5,a4
 2d4:	00078023          	sb	zero,0(a5)
 2d8:	fec42783          	lw	a5,-20(s0)
 2dc:	0785                	addi	a5,a5,1
 2de:	fd043703          	ld	a4,-48(s0)
 2e2:	97ba                	add	a5,a5,a4
 2e4:	a839                	j	302 <.L30>

00000000000002e6 <.L35>:
 2e6:	fec42783          	lw	a5,-20(s0)
 2ea:	2785                	addiw	a5,a5,1
 2ec:	fef42623          	sw	a5,-20(s0)

00000000000002f0 <.L31>:
 2f0:	fec42703          	lw	a4,-20(s0)
 2f4:	fe842783          	lw	a5,-24(s0)
 2f8:	2701                	sext.w	a4,a4
 2fa:	2781                	sext.w	a5,a5
 2fc:	f8f74be3          	blt	a4,a5,292 <.L34>

0000000000000300 <.LBE2>:
 300:	4781                	li	a5,0

0000000000000302 <.L30>:
 302:	853e                	mv	a0,a5
 304:	70e2                	ld	ra,56(sp)
 306:	7442                	ld	s0,48(sp)

0000000000000308 <.LVL66>:
 308:	6121                	addi	sp,sp,64

000000000000030a <.LVL67>:
 30a:	8082                	ret

000000000000030c <atoi>:
 30c:	7139                	addi	sp,sp,-64
 30e:	fc06                	sd	ra,56(sp)
 310:	f822                	sd	s0,48(sp)
 312:	f426                	sd	s1,40(sp)
 314:	0080                	addi	s0,sp,64
 316:	fca43423          	sd	a0,-56(s0)
 31a:	fc042e23          	sw	zero,-36(s0)

000000000000031e <.LBB3>:
 31e:	fc042c23          	sw	zero,-40(s0)

0000000000000322 <.LVL70>:
 322:	a081                	j	362 <.L37>

0000000000000324 <.L38>:
 324:	fdc42703          	lw	a4,-36(s0)
 328:	87ba                	mv	a5,a4
 32a:	0027979b          	slliw	a5,a5,0x2
 32e:	9fb9                	addw	a5,a5,a4
 330:	0017979b          	slliw	a5,a5,0x1
 334:	fcf42e23          	sw	a5,-36(s0)

0000000000000338 <.LVL72>:
 338:	fd842783          	lw	a5,-40(s0)

000000000000033c <.LVL73>:
 33c:	fc843703          	ld	a4,-56(s0)
 340:	97ba                	add	a5,a5,a4
 342:	0007c783          	lbu	a5,0(a5)
 346:	2781                	sext.w	a5,a5
 348:	fd07879b          	addiw	a5,a5,-48
 34c:	2781                	sext.w	a5,a5
 34e:	fdc42703          	lw	a4,-36(s0)
 352:	9fb9                	addw	a5,a5,a4
 354:	fcf42e23          	sw	a5,-36(s0)

0000000000000358 <.LVL74>:
 358:	fd842783          	lw	a5,-40(s0)

000000000000035c <.LVL75>:
 35c:	2785                	addiw	a5,a5,1
 35e:	fcf42c23          	sw	a5,-40(s0)

0000000000000362 <.L37>:
 362:	fd842483          	lw	s1,-40(s0)
 366:	fc843503          	ld	a0,-56(s0)
 36a:	00000097          	auipc	ra,0x0
 36e:	000080e7          	jalr	ra # 36a <.L37+0x8>

0000000000000372 <.LVL77>:
 372:	87aa                	mv	a5,a0
 374:	faf4e8e3          	bltu	s1,a5,324 <.L38>

0000000000000378 <.LBE3>:
 378:	fdc42783          	lw	a5,-36(s0)
 37c:	853e                	mv	a0,a5
 37e:	70e2                	ld	ra,56(sp)
 380:	7442                	ld	s0,48(sp)

0000000000000382 <.LVL78>:
 382:	74a2                	ld	s1,40(sp)
 384:	6121                	addi	sp,sp,64

0000000000000386 <.LVL79>:
 386:	8082                	ret

mthread.o:     file format elf64-littleriscv


Disassembly of section .text:

0000000000000000 <mthread_spin_init>:
   0:	1101                	addi	sp,sp,-32
   2:	ec22                	sd	s0,24(sp)
   4:	1000                	addi	s0,sp,32
   6:	fea43423          	sd	a0,-24(s0)

000000000000000a <.LVL1>:
   a:	0001                	nop
   c:	853e                	mv	a0,a5
   e:	6462                	ld	s0,24(sp)

0000000000000010 <.LVL2>:
  10:	6105                	addi	sp,sp,32

0000000000000012 <.LVL3>:
  12:	8082                	ret

0000000000000014 <mthread_spin_destroy>:
  14:	1101                	addi	sp,sp,-32
  16:	ec22                	sd	s0,24(sp)
  18:	1000                	addi	s0,sp,32
  1a:	fea43423          	sd	a0,-24(s0)

000000000000001e <.LVL5>:
  1e:	0001                	nop
  20:	853e                	mv	a0,a5
  22:	6462                	ld	s0,24(sp)

0000000000000024 <.LVL6>:
  24:	6105                	addi	sp,sp,32

0000000000000026 <.LVL7>:
  26:	8082                	ret

0000000000000028 <mthread_spin_trylock>:
  28:	1101                	addi	sp,sp,-32
  2a:	ec22                	sd	s0,24(sp)
  2c:	1000                	addi	s0,sp,32
  2e:	fea43423          	sd	a0,-24(s0)

0000000000000032 <.LVL9>:
  32:	0001                	nop
  34:	853e                	mv	a0,a5
  36:	6462                	ld	s0,24(sp)

0000000000000038 <.LVL10>:
  38:	6105                	addi	sp,sp,32

000000000000003a <.LVL11>:
  3a:	8082                	ret

000000000000003c <mthread_spin_lock>:
  3c:	1101                	addi	sp,sp,-32
  3e:	ec22                	sd	s0,24(sp)
  40:	1000                	addi	s0,sp,32
  42:	fea43423          	sd	a0,-24(s0)

0000000000000046 <.LVL13>:
  46:	0001                	nop
  48:	853e                	mv	a0,a5
  4a:	6462                	ld	s0,24(sp)

000000000000004c <.LVL14>:
  4c:	6105                	addi	sp,sp,32

000000000000004e <.LVL15>:
  4e:	8082                	ret

0000000000000050 <mthread_spin_unlock>:
  50:	1101                	addi	sp,sp,-32
  52:	ec22                	sd	s0,24(sp)
  54:	1000                	addi	s0,sp,32
  56:	fea43423          	sd	a0,-24(s0)

000000000000005a <.LVL17>:
  5a:	0001                	nop
  5c:	853e                	mv	a0,a5
  5e:	6462                	ld	s0,24(sp)

0000000000000060 <.LVL18>:
  60:	6105                	addi	sp,sp,32

0000000000000062 <.LVL19>:
  62:	8082                	ret

0000000000000064 <mthread_mutex_init>:
  64:	1101                	addi	sp,sp,-32
  66:	ec06                	sd	ra,24(sp)
  68:	e822                	sd	s0,16(sp)
  6a:	1000                	addi	s0,sp,32
  6c:	fea43423          	sd	a0,-24(s0)
  70:	00000797          	auipc	a5,0x0
  74:	00078793          	mv	a5,a5
  78:	4398                	lw	a4,0(a5)
  7a:	fe843783          	ld	a5,-24(s0)
  7e:	c398                	sw	a4,0(a5)
  80:	00000097          	auipc	ra,0x0
  84:	000080e7          	jalr	ra # 80 <mthread_mutex_init+0x1c>

0000000000000088 <.LVL21>:
  88:	87aa                	mv	a5,a0
  8a:	873e                	mv	a4,a5
  8c:	4795                	li	a5,5
  8e:	02f767bb          	remw	a5,a4,a5
  92:	2781                	sext.w	a5,a5
  94:	2785                	addiw	a5,a5,1
  96:	0007871b          	sext.w	a4,a5
  9a:	00000797          	auipc	a5,0x0
  9e:	00078793          	mv	a5,a5
  a2:	439c                	lw	a5,0(a5)
  a4:	9fb9                	addw	a5,a5,a4
  a6:	0007871b          	sext.w	a4,a5
  aa:	00000797          	auipc	a5,0x0
  ae:	00078793          	mv	a5,a5
  b2:	c398                	sw	a4,0(a5)
  b4:	fe843783          	ld	a5,-24(s0)
  b8:	439c                	lw	a5,0(a5)
  ba:	853e                	mv	a0,a5
  bc:	00000097          	auipc	ra,0x0
  c0:	000080e7          	jalr	ra # bc <.LVL21+0x34>

00000000000000c4 <.LVL22>:
  c4:	87aa                	mv	a5,a0
  c6:	873e                	mv	a4,a5
  c8:	fe843783          	ld	a5,-24(s0)
  cc:	c3d8                	sw	a4,4(a5)
  ce:	0001                	nop
  d0:	853e                	mv	a0,a5
  d2:	60e2                	ld	ra,24(sp)
  d4:	6442                	ld	s0,16(sp)

00000000000000d6 <.LVL23>:
  d6:	6105                	addi	sp,sp,32

00000000000000d8 <.LVL24>:
  d8:	8082                	ret

00000000000000da <mthread_mutex_destroy>:
  da:	1101                	addi	sp,sp,-32
  dc:	ec22                	sd	s0,24(sp)
  de:	1000                	addi	s0,sp,32
  e0:	fea43423          	sd	a0,-24(s0)
  e4:	fe843783          	ld	a5,-24(s0)
  e8:	577d                	li	a4,-1
  ea:	c398                	sw	a4,0(a5)
  ec:	fe843783          	ld	a5,-24(s0)
  f0:	577d                	li	a4,-1
  f2:	c3d8                	sw	a4,4(a5)

00000000000000f4 <.LVL26>:
  f4:	0001                	nop
  f6:	853e                	mv	a0,a5
  f8:	6462                	ld	s0,24(sp)

00000000000000fa <.LVL28>:
  fa:	6105                	addi	sp,sp,32

00000000000000fc <.LVL29>:
  fc:	8082                	ret

00000000000000fe <mthread_mutex_trylock>:
  fe:	1101                	addi	sp,sp,-32
 100:	ec22                	sd	s0,24(sp)
 102:	1000                	addi	s0,sp,32
 104:	fea43423          	sd	a0,-24(s0)

0000000000000108 <.LVL31>:
 108:	0001                	nop
 10a:	853e                	mv	a0,a5
 10c:	6462                	ld	s0,24(sp)

000000000000010e <.LVL32>:
 10e:	6105                	addi	sp,sp,32

0000000000000110 <.LVL33>:
 110:	8082                	ret

0000000000000112 <mthread_mutex_lock>:
 112:	1101                	addi	sp,sp,-32
 114:	ec06                	sd	ra,24(sp)
 116:	e822                	sd	s0,16(sp)
 118:	1000                	addi	s0,sp,32
 11a:	fea43423          	sd	a0,-24(s0)
 11e:	fe843783          	ld	a5,-24(s0)
 122:	43dc                	lw	a5,4(a5)
 124:	4581                	li	a1,0
 126:	853e                	mv	a0,a5

0000000000000128 <.LVL35>:
 128:	00000097          	auipc	ra,0x0
 12c:	000080e7          	jalr	ra # 128 <.LVL35>

0000000000000130 <.LVL36>:
 130:	0001                	nop
 132:	853e                	mv	a0,a5
 134:	60e2                	ld	ra,24(sp)
 136:	6442                	ld	s0,16(sp)

0000000000000138 <.LVL37>:
 138:	6105                	addi	sp,sp,32

000000000000013a <.LVL38>:
 13a:	8082                	ret

000000000000013c <mthread_mutex_unlock>:
 13c:	1101                	addi	sp,sp,-32
 13e:	ec06                	sd	ra,24(sp)
 140:	e822                	sd	s0,16(sp)
 142:	1000                	addi	s0,sp,32
 144:	fea43423          	sd	a0,-24(s0)
 148:	fe843783          	ld	a5,-24(s0)
 14c:	43dc                	lw	a5,4(a5)
 14e:	4585                	li	a1,1
 150:	853e                	mv	a0,a5

0000000000000152 <.LVL40>:
 152:	00000097          	auipc	ra,0x0
 156:	000080e7          	jalr	ra # 152 <.LVL40>

000000000000015a <.LVL41>:
 15a:	0001                	nop
 15c:	853e                	mv	a0,a5
 15e:	60e2                	ld	ra,24(sp)
 160:	6442                	ld	s0,16(sp)

0000000000000162 <.LVL42>:
 162:	6105                	addi	sp,sp,32

0000000000000164 <.LVL43>:
 164:	8082                	ret

0000000000000166 <mthread_barrier_init>:
 166:	1101                	addi	sp,sp,-32
 168:	ec06                	sd	ra,24(sp)
 16a:	e822                	sd	s0,16(sp)
 16c:	1000                	addi	s0,sp,32
 16e:	fea43423          	sd	a0,-24(s0)
 172:	87ae                	mv	a5,a1
 174:	fef42223          	sw	a5,-28(s0)
 178:	00000797          	auipc	a5,0x0
 17c:	00078793          	mv	a5,a5
 180:	4398                	lw	a4,0(a5)
 182:	fe843783          	ld	a5,-24(s0)
 186:	c398                	sw	a4,0(a5)
 188:	00000097          	auipc	ra,0x0
 18c:	000080e7          	jalr	ra # 188 <mthread_barrier_init+0x22>

0000000000000190 <.LVL45>:
 190:	87aa                	mv	a5,a0
 192:	873e                	mv	a4,a5
 194:	4795                	li	a5,5
 196:	02f767bb          	remw	a5,a4,a5
 19a:	2781                	sext.w	a5,a5
 19c:	2785                	addiw	a5,a5,1
 19e:	0007871b          	sext.w	a4,a5
 1a2:	00000797          	auipc	a5,0x0
 1a6:	00078793          	mv	a5,a5
 1aa:	439c                	lw	a5,0(a5)
 1ac:	9fb9                	addw	a5,a5,a4
 1ae:	0007871b          	sext.w	a4,a5
 1b2:	00000797          	auipc	a5,0x0
 1b6:	00078793          	mv	a5,a5
 1ba:	c398                	sw	a4,0(a5)
 1bc:	fe843783          	ld	a5,-24(s0)
 1c0:	439c                	lw	a5,0(a5)
 1c2:	853e                	mv	a0,a5
 1c4:	00000097          	auipc	ra,0x0
 1c8:	000080e7          	jalr	ra # 1c4 <.LVL45+0x34>

00000000000001cc <.LVL46>:
 1cc:	87aa                	mv	a5,a0
 1ce:	873e                	mv	a4,a5
 1d0:	fe843783          	ld	a5,-24(s0)
 1d4:	c3d8                	sw	a4,4(a5)
 1d6:	fe442703          	lw	a4,-28(s0)
 1da:	fe843783          	ld	a5,-24(s0)
 1de:	c798                	sw	a4,8(a5)
 1e0:	0001                	nop
 1e2:	853e                	mv	a0,a5
 1e4:	60e2                	ld	ra,24(sp)
 1e6:	6442                	ld	s0,16(sp)

00000000000001e8 <.LVL47>:
 1e8:	6105                	addi	sp,sp,32

00000000000001ea <.LVL48>:
 1ea:	8082                	ret

00000000000001ec <mthread_barrier_wait>:
 1ec:	1101                	addi	sp,sp,-32
 1ee:	ec06                	sd	ra,24(sp)
 1f0:	e822                	sd	s0,16(sp)
 1f2:	1000                	addi	s0,sp,32
 1f4:	fea43423          	sd	a0,-24(s0)
 1f8:	fe843783          	ld	a5,-24(s0)
 1fc:	43d8                	lw	a4,4(a5)
 1fe:	fe843783          	ld	a5,-24(s0)
 202:	479c                	lw	a5,8(a5)
 204:	85be                	mv	a1,a5
 206:	853a                	mv	a0,a4

0000000000000208 <.LVL50>:
 208:	00000097          	auipc	ra,0x0
 20c:	000080e7          	jalr	ra # 208 <.LVL50>

0000000000000210 <.LVL51>:
 210:	0001                	nop
 212:	853e                	mv	a0,a5
 214:	60e2                	ld	ra,24(sp)
 216:	6442                	ld	s0,16(sp)

0000000000000218 <.LVL52>:
 218:	6105                	addi	sp,sp,32

000000000000021a <.LVL53>:
 21a:	8082                	ret

000000000000021c <mthread_barrier_destroy>:
 21c:	1101                	addi	sp,sp,-32
 21e:	ec22                	sd	s0,24(sp)
 220:	1000                	addi	s0,sp,32
 222:	fea43423          	sd	a0,-24(s0)
 226:	fe843783          	ld	a5,-24(s0)
 22a:	0007a023          	sw	zero,0(a5) # 1b2 <.LVL45+0x22>
 22e:	fe843783          	ld	a5,-24(s0)
 232:	0007a223          	sw	zero,4(a5)
 236:	fe843783          	ld	a5,-24(s0)
 23a:	0007a423          	sw	zero,8(a5)

000000000000023e <.LVL55>:
 23e:	0001                	nop
 240:	853e                	mv	a0,a5
 242:	6462                	ld	s0,24(sp)

0000000000000244 <.LVL57>:
 244:	6105                	addi	sp,sp,32

0000000000000246 <.LVL58>:
 246:	8082                	ret

0000000000000248 <mthread_cond_init>:
 248:	1101                	addi	sp,sp,-32
 24a:	ec06                	sd	ra,24(sp)
 24c:	e822                	sd	s0,16(sp)
 24e:	1000                	addi	s0,sp,32
 250:	fea43423          	sd	a0,-24(s0)
 254:	00000797          	auipc	a5,0x0
 258:	00078793          	mv	a5,a5
 25c:	4398                	lw	a4,0(a5)
 25e:	fe843783          	ld	a5,-24(s0)
 262:	c398                	sw	a4,0(a5)
 264:	00000097          	auipc	ra,0x0
 268:	000080e7          	jalr	ra # 264 <mthread_cond_init+0x1c>

000000000000026c <.LVL60>:
 26c:	87aa                	mv	a5,a0
 26e:	873e                	mv	a4,a5
 270:	4795                	li	a5,5
 272:	02f767bb          	remw	a5,a4,a5
 276:	2781                	sext.w	a5,a5
 278:	2785                	addiw	a5,a5,1
 27a:	0007871b          	sext.w	a4,a5
 27e:	00000797          	auipc	a5,0x0
 282:	00078793          	mv	a5,a5
 286:	439c                	lw	a5,0(a5)
 288:	9fb9                	addw	a5,a5,a4
 28a:	0007871b          	sext.w	a4,a5
 28e:	00000797          	auipc	a5,0x0
 292:	00078793          	mv	a5,a5
 296:	c398                	sw	a4,0(a5)
 298:	fe843783          	ld	a5,-24(s0)
 29c:	439c                	lw	a5,0(a5)
 29e:	853e                	mv	a0,a5
 2a0:	00000097          	auipc	ra,0x0
 2a4:	000080e7          	jalr	ra # 2a0 <.LVL60+0x34>

00000000000002a8 <.LVL61>:
 2a8:	87aa                	mv	a5,a0
 2aa:	873e                	mv	a4,a5
 2ac:	fe843783          	ld	a5,-24(s0)
 2b0:	c3d8                	sw	a4,4(a5)
 2b2:	0001                	nop
 2b4:	853e                	mv	a0,a5
 2b6:	60e2                	ld	ra,24(sp)
 2b8:	6442                	ld	s0,16(sp)

00000000000002ba <.LVL62>:
 2ba:	6105                	addi	sp,sp,32

00000000000002bc <.LVL63>:
 2bc:	8082                	ret

00000000000002be <mthread_cond_destroy>:
 2be:	1101                	addi	sp,sp,-32
 2c0:	ec22                	sd	s0,24(sp)
 2c2:	1000                	addi	s0,sp,32
 2c4:	fea43423          	sd	a0,-24(s0)
 2c8:	fe843783          	ld	a5,-24(s0)
 2cc:	577d                	li	a4,-1
 2ce:	c398                	sw	a4,0(a5)
 2d0:	fe843783          	ld	a5,-24(s0)
 2d4:	577d                	li	a4,-1
 2d6:	c3d8                	sw	a4,4(a5)

00000000000002d8 <.LVL65>:
 2d8:	0001                	nop
 2da:	853e                	mv	a0,a5
 2dc:	6462                	ld	s0,24(sp)

00000000000002de <.LVL67>:
 2de:	6105                	addi	sp,sp,32

00000000000002e0 <.LVL68>:
 2e0:	8082                	ret

00000000000002e2 <mthread_cond_wait>:
 2e2:	1101                	addi	sp,sp,-32
 2e4:	ec06                	sd	ra,24(sp)
 2e6:	e822                	sd	s0,16(sp)
 2e8:	1000                	addi	s0,sp,32
 2ea:	fea43423          	sd	a0,-24(s0)
 2ee:	feb43023          	sd	a1,-32(s0)
 2f2:	fe843783          	ld	a5,-24(s0)
 2f6:	43d8                	lw	a4,4(a5)
 2f8:	fe043783          	ld	a5,-32(s0)
 2fc:	43dc                	lw	a5,4(a5)
 2fe:	85be                	mv	a1,a5

0000000000000300 <.LVL70>:
 300:	853a                	mv	a0,a4

0000000000000302 <.LVL71>:
 302:	00000097          	auipc	ra,0x0
 306:	000080e7          	jalr	ra # 302 <.LVL71>

000000000000030a <.LVL72>:
 30a:	0001                	nop
 30c:	853e                	mv	a0,a5
 30e:	60e2                	ld	ra,24(sp)
 310:	6442                	ld	s0,16(sp)

0000000000000312 <.LVL73>:
 312:	6105                	addi	sp,sp,32

0000000000000314 <.LVL74>:
 314:	8082                	ret

0000000000000316 <mthread_cond_signal>:
 316:	1101                	addi	sp,sp,-32
 318:	ec06                	sd	ra,24(sp)
 31a:	e822                	sd	s0,16(sp)
 31c:	1000                	addi	s0,sp,32
 31e:	fea43423          	sd	a0,-24(s0)
 322:	fe843783          	ld	a5,-24(s0)
 326:	43dc                	lw	a5,4(a5)
 328:	853e                	mv	a0,a5

000000000000032a <.LVL76>:
 32a:	00000097          	auipc	ra,0x0
 32e:	000080e7          	jalr	ra # 32a <.LVL76>

0000000000000332 <.LVL77>:
 332:	0001                	nop
 334:	853e                	mv	a0,a5
 336:	60e2                	ld	ra,24(sp)
 338:	6442                	ld	s0,16(sp)

000000000000033a <.LVL78>:
 33a:	6105                	addi	sp,sp,32

000000000000033c <.LVL79>:
 33c:	8082                	ret

000000000000033e <mthread_cond_broadcast>:
 33e:	1101                	addi	sp,sp,-32
 340:	ec06                	sd	ra,24(sp)
 342:	e822                	sd	s0,16(sp)
 344:	1000                	addi	s0,sp,32
 346:	fea43423          	sd	a0,-24(s0)
 34a:	fe843783          	ld	a5,-24(s0)
 34e:	43dc                	lw	a5,4(a5)
 350:	853e                	mv	a0,a5

0000000000000352 <.LVL81>:
 352:	00000097          	auipc	ra,0x0
 356:	000080e7          	jalr	ra # 352 <.LVL81>

000000000000035a <.LVL82>:
 35a:	0001                	nop
 35c:	853e                	mv	a0,a5
 35e:	60e2                	ld	ra,24(sp)
 360:	6442                	ld	s0,16(sp)

0000000000000362 <.LVL83>:
 362:	6105                	addi	sp,sp,32

0000000000000364 <.LVL84>:
 364:	8082                	ret

0000000000000366 <mthread_semaphore_init>:
 366:	1101                	addi	sp,sp,-32
 368:	ec22                	sd	s0,24(sp)
 36a:	1000                	addi	s0,sp,32
 36c:	fea43423          	sd	a0,-24(s0)
 370:	87ae                	mv	a5,a1
 372:	fef42223          	sw	a5,-28(s0)

0000000000000376 <.LVL86>:
 376:	0001                	nop
 378:	853e                	mv	a0,a5
 37a:	6462                	ld	s0,24(sp)

000000000000037c <.LVL87>:
 37c:	6105                	addi	sp,sp,32

000000000000037e <.LVL88>:
 37e:	8082                	ret

0000000000000380 <mthread_semaphore_up>:
 380:	1101                	addi	sp,sp,-32
 382:	ec22                	sd	s0,24(sp)
 384:	1000                	addi	s0,sp,32
 386:	fea43423          	sd	a0,-24(s0)

000000000000038a <.LVL90>:
 38a:	0001                	nop
 38c:	853e                	mv	a0,a5
 38e:	6462                	ld	s0,24(sp)

0000000000000390 <.LVL91>:
 390:	6105                	addi	sp,sp,32

0000000000000392 <.LVL92>:
 392:	8082                	ret

0000000000000394 <mthread_semaphore_down>:
 394:	1101                	addi	sp,sp,-32
 396:	ec22                	sd	s0,24(sp)
 398:	1000                	addi	s0,sp,32
 39a:	fea43423          	sd	a0,-24(s0)

000000000000039e <.LVL94>:
 39e:	0001                	nop
 3a0:	853e                	mv	a0,a5
 3a2:	6462                	ld	s0,24(sp)

00000000000003a4 <.LVL95>:
 3a4:	6105                	addi	sp,sp,32

00000000000003a6 <.LVL96>:
 3a6:	8082                	ret

00000000000003a8 <mthread_semaphore_destroy>:
 3a8:	1101                	addi	sp,sp,-32
 3aa:	ec22                	sd	s0,24(sp)
 3ac:	1000                	addi	s0,sp,32
 3ae:	fea43423          	sd	a0,-24(s0)

00000000000003b2 <.LVL98>:
 3b2:	0001                	nop
 3b4:	853e                	mv	a0,a5
 3b6:	6462                	ld	s0,24(sp)

00000000000003b8 <.LVL99>:
 3b8:	6105                	addi	sp,sp,32

00000000000003ba <.LVL100>:
 3ba:	8082                	ret

syscall.o:     file format elf64-littleriscv


Disassembly of section .text:

0000000000000000 <sys_exec>:
   0:	7179                	addi	sp,sp,-48
   2:	f406                	sd	ra,40(sp)
   4:	f022                	sd	s0,32(sp)
   6:	1800                	addi	s0,sp,48
   8:	fea43423          	sd	a0,-24(s0)
   c:	87ae                	mv	a5,a1
   e:	fcc43c23          	sd	a2,-40(s0)
  12:	8736                	mv	a4,a3
  14:	fef42223          	sw	a5,-28(s0)
  18:	87ba                	mv	a5,a4
  1a:	fef42023          	sw	a5,-32(s0)
  1e:	fe843783          	ld	a5,-24(s0)
  22:	fe442603          	lw	a2,-28(s0)

0000000000000026 <.LVL1>:
  26:	fd843683          	ld	a3,-40(s0)

000000000000002a <.LVL2>:
  2a:	fe046703          	lwu	a4,-32(s0)
  2e:	85be                	mv	a1,a5

0000000000000030 <.LVL3>:
  30:	03200513          	li	a0,50

0000000000000034 <.LVL4>:
  34:	00000097          	auipc	ra,0x0
  38:	000080e7          	jalr	ra # 34 <.LVL4>

000000000000003c <.LVL5>:
  3c:	87aa                	mv	a5,a0
  3e:	2781                	sext.w	a5,a5
  40:	853e                	mv	a0,a5
  42:	70a2                	ld	ra,40(sp)
  44:	7402                	ld	s0,32(sp)

0000000000000046 <.LVL6>:
  46:	6145                	addi	sp,sp,48

0000000000000048 <.LVL7>:
  48:	8082                	ret

000000000000004a <sys_show_exec>:
  4a:	1141                	addi	sp,sp,-16
  4c:	e406                	sd	ra,8(sp)
  4e:	e022                	sd	s0,0(sp)
  50:	0800                	addi	s0,sp,16
  52:	4701                	li	a4,0
  54:	4681                	li	a3,0
  56:	4601                	li	a2,0
  58:	4581                	li	a1,0
  5a:	03300513          	li	a0,51
  5e:	00000097          	auipc	ra,0x0
  62:	000080e7          	jalr	ra # 5e <sys_show_exec+0x14>

0000000000000066 <.LVL8>:
  66:	0001                	nop
  68:	60a2                	ld	ra,8(sp)
  6a:	6402                	ld	s0,0(sp)
  6c:	0141                	addi	sp,sp,16
  6e:	8082                	ret

0000000000000070 <shmpageget>:
  70:	1101                	addi	sp,sp,-32
  72:	ec06                	sd	ra,24(sp)
  74:	e822                	sd	s0,16(sp)
  76:	1000                	addi	s0,sp,32
  78:	87aa                	mv	a5,a0
  7a:	fef42623          	sw	a5,-20(s0)
  7e:	fec42783          	lw	a5,-20(s0)
  82:	4701                	li	a4,0
  84:	4681                	li	a3,0
  86:	4601                	li	a2,0
  88:	85be                	mv	a1,a5
  8a:	4545                	li	a0,17

000000000000008c <.LVL10>:
  8c:	00000097          	auipc	ra,0x0
  90:	000080e7          	jalr	ra # 8c <.LVL10>

0000000000000094 <.LVL11>:
  94:	87aa                	mv	a5,a0
  96:	853e                	mv	a0,a5
  98:	60e2                	ld	ra,24(sp)
  9a:	6442                	ld	s0,16(sp)
  9c:	6105                	addi	sp,sp,32
  9e:	8082                	ret

00000000000000a0 <shmpagedt>:
  a0:	1101                	addi	sp,sp,-32
  a2:	ec06                	sd	ra,24(sp)
  a4:	e822                	sd	s0,16(sp)
  a6:	1000                	addi	s0,sp,32
  a8:	fea43423          	sd	a0,-24(s0)
  ac:	fe843783          	ld	a5,-24(s0)
  b0:	4701                	li	a4,0
  b2:	4681                	li	a3,0
  b4:	4601                	li	a2,0
  b6:	85be                	mv	a1,a5
  b8:	4549                	li	a0,18

00000000000000ba <.LVL13>:
  ba:	00000097          	auipc	ra,0x0
  be:	000080e7          	jalr	ra # ba <.LVL13>

00000000000000c2 <.LVL14>:
  c2:	0001                	nop
  c4:	60e2                	ld	ra,24(sp)
  c6:	6442                	ld	s0,16(sp)

00000000000000c8 <.LVL15>:
  c8:	6105                	addi	sp,sp,32

00000000000000ca <.LVL16>:
  ca:	8082                	ret

00000000000000cc <sys_sleep>:
  cc:	1101                	addi	sp,sp,-32
  ce:	ec06                	sd	ra,24(sp)
  d0:	e822                	sd	s0,16(sp)
  d2:	1000                	addi	s0,sp,32
  d4:	87aa                	mv	a5,a0
  d6:	fef42623          	sw	a5,-20(s0)
  da:	fec46783          	lwu	a5,-20(s0)
  de:	4701                	li	a4,0
  e0:	4681                	li	a3,0
  e2:	4601                	li	a2,0
  e4:	85be                	mv	a1,a5
  e6:	4509                	li	a0,2

00000000000000e8 <.LVL18>:
  e8:	00000097          	auipc	ra,0x0
  ec:	000080e7          	jalr	ra # e8 <.LVL18>

00000000000000f0 <.LVL19>:
  f0:	0001                	nop
  f2:	60e2                	ld	ra,24(sp)
  f4:	6442                	ld	s0,16(sp)
  f6:	6105                	addi	sp,sp,32
  f8:	8082                	ret

00000000000000fa <sys_scheduler>:
  fa:	1141                	addi	sp,sp,-16
  fc:	e406                	sd	ra,8(sp)
  fe:	e022                	sd	s0,0(sp)
 100:	0800                	addi	s0,sp,16
 102:	4701                	li	a4,0
 104:	4681                	li	a3,0
 106:	4601                	li	a2,0
 108:	4581                	li	a1,0
 10a:	451d                	li	a0,7
 10c:	00000097          	auipc	ra,0x0
 110:	000080e7          	jalr	ra # 10c <sys_scheduler+0x12>

0000000000000114 <.LVL20>:
 114:	0001                	nop
 116:	60a2                	ld	ra,8(sp)
 118:	6402                	ld	s0,0(sp)
 11a:	0141                	addi	sp,sp,16
 11c:	8082                	ret

000000000000011e <sys_write>:
 11e:	1101                	addi	sp,sp,-32
 120:	ec06                	sd	ra,24(sp)
 122:	e822                	sd	s0,16(sp)
 124:	1000                	addi	s0,sp,32
 126:	fea43423          	sd	a0,-24(s0)
 12a:	fe843783          	ld	a5,-24(s0)
 12e:	4701                	li	a4,0
 130:	4681                	li	a3,0
 132:	4601                	li	a2,0
 134:	85be                	mv	a1,a5
 136:	4551                	li	a0,20

0000000000000138 <.LVL22>:
 138:	00000097          	auipc	ra,0x0
 13c:	000080e7          	jalr	ra # 138 <.LVL22>

0000000000000140 <.LVL23>:
 140:	0001                	nop
 142:	60e2                	ld	ra,24(sp)
 144:	6442                	ld	s0,16(sp)

0000000000000146 <.LVL24>:
 146:	6105                	addi	sp,sp,32

0000000000000148 <.LVL25>:
 148:	8082                	ret

000000000000014a <sys_reflush>:
 14a:	1141                	addi	sp,sp,-16
 14c:	e406                	sd	ra,8(sp)
 14e:	e022                	sd	s0,0(sp)
 150:	0800                	addi	s0,sp,16
 152:	4701                	li	a4,0
 154:	4681                	li	a3,0
 156:	4601                	li	a2,0
 158:	4581                	li	a1,0
 15a:	455d                	li	a0,23
 15c:	00000097          	auipc	ra,0x0
 160:	000080e7          	jalr	ra # 15c <sys_reflush+0x12>

0000000000000164 <.LVL26>:
 164:	0001                	nop
 166:	60a2                	ld	ra,8(sp)
 168:	6402                	ld	s0,0(sp)
 16a:	0141                	addi	sp,sp,16
 16c:	8082                	ret

000000000000016e <sys_move_cursor>:
 16e:	1101                	addi	sp,sp,-32
 170:	ec06                	sd	ra,24(sp)
 172:	e822                	sd	s0,16(sp)
 174:	1000                	addi	s0,sp,32
 176:	87aa                	mv	a5,a0
 178:	872e                	mv	a4,a1
 17a:	fef42623          	sw	a5,-20(s0)
 17e:	87ba                	mv	a5,a4
 180:	fef42423          	sw	a5,-24(s0)
 184:	fec42783          	lw	a5,-20(s0)
 188:	fe842603          	lw	a2,-24(s0)
 18c:	4701                	li	a4,0
 18e:	4681                	li	a3,0
 190:	85be                	mv	a1,a5

0000000000000192 <.LVL28>:
 192:	4559                	li	a0,22

0000000000000194 <.LVL29>:
 194:	00000097          	auipc	ra,0x0
 198:	000080e7          	jalr	ra # 194 <.LVL29>

000000000000019c <.LVL30>:
 19c:	0001                	nop
 19e:	60e2                	ld	ra,24(sp)
 1a0:	6442                	ld	s0,16(sp)
 1a2:	6105                	addi	sp,sp,32
 1a4:	8082                	ret

00000000000001a6 <binsemget>:
 1a6:	1101                	addi	sp,sp,-32
 1a8:	ec06                	sd	ra,24(sp)
 1aa:	e822                	sd	s0,16(sp)
 1ac:	1000                	addi	s0,sp,32
 1ae:	87aa                	mv	a5,a0
 1b0:	fef42623          	sw	a5,-20(s0)
 1b4:	fec42783          	lw	a5,-20(s0)
 1b8:	4701                	li	a4,0
 1ba:	4681                	li	a3,0
 1bc:	4601                	li	a2,0
 1be:	85be                	mv	a1,a5
 1c0:	4521                	li	a0,8

00000000000001c2 <.LVL32>:
 1c2:	00000097          	auipc	ra,0x0
 1c6:	000080e7          	jalr	ra # 1c2 <.LVL32>

00000000000001ca <.LVL33>:
 1ca:	87aa                	mv	a5,a0
 1cc:	2781                	sext.w	a5,a5
 1ce:	853e                	mv	a0,a5
 1d0:	60e2                	ld	ra,24(sp)
 1d2:	6442                	ld	s0,16(sp)
 1d4:	6105                	addi	sp,sp,32
 1d6:	8082                	ret

00000000000001d8 <binsemop>:
 1d8:	1101                	addi	sp,sp,-32
 1da:	ec06                	sd	ra,24(sp)
 1dc:	e822                	sd	s0,16(sp)
 1de:	1000                	addi	s0,sp,32
 1e0:	87aa                	mv	a5,a0
 1e2:	872e                	mv	a4,a1
 1e4:	fef42623          	sw	a5,-20(s0)
 1e8:	87ba                	mv	a5,a4
 1ea:	fef42423          	sw	a5,-24(s0)
 1ee:	fec42783          	lw	a5,-20(s0)
 1f2:	fe842603          	lw	a2,-24(s0)
 1f6:	4701                	li	a4,0
 1f8:	4681                	li	a3,0
 1fa:	85be                	mv	a1,a5

00000000000001fc <.LVL35>:
 1fc:	4525                	li	a0,9

00000000000001fe <.LVL36>:
 1fe:	00000097          	auipc	ra,0x0
 202:	000080e7          	jalr	ra # 1fe <.LVL36>

0000000000000206 <.LVL37>:
 206:	87aa                	mv	a5,a0
 208:	2781                	sext.w	a5,a5
 20a:	853e                	mv	a0,a5
 20c:	60e2                	ld	ra,24(sp)
 20e:	6442                	ld	s0,16(sp)
 210:	6105                	addi	sp,sp,32
 212:	8082                	ret

0000000000000214 <sys_get_timebase>:
 214:	1141                	addi	sp,sp,-16
 216:	e406                	sd	ra,8(sp)
 218:	e022                	sd	s0,0(sp)
 21a:	0800                	addi	s0,sp,16
 21c:	4701                	li	a4,0
 21e:	4681                	li	a3,0
 220:	4601                	li	a2,0
 222:	4581                	li	a1,0
 224:	4579                	li	a0,30
 226:	00000097          	auipc	ra,0x0
 22a:	000080e7          	jalr	ra # 226 <sys_get_timebase+0x12>

000000000000022e <.LVL38>:
 22e:	87aa                	mv	a5,a0
 230:	853e                	mv	a0,a5
 232:	60a2                	ld	ra,8(sp)
 234:	6402                	ld	s0,0(sp)
 236:	0141                	addi	sp,sp,16
 238:	8082                	ret

000000000000023a <sys_get_tick>:
 23a:	1141                	addi	sp,sp,-16
 23c:	e406                	sd	ra,8(sp)
 23e:	e022                	sd	s0,0(sp)
 240:	0800                	addi	s0,sp,16
 242:	4701                	li	a4,0
 244:	4681                	li	a3,0
 246:	4601                	li	a2,0
 248:	4581                	li	a1,0
 24a:	457d                	li	a0,31
 24c:	00000097          	auipc	ra,0x0
 250:	000080e7          	jalr	ra # 24c <sys_get_tick+0x12>

0000000000000254 <.LVL39>:
 254:	87aa                	mv	a5,a0
 256:	853e                	mv	a0,a5
 258:	60a2                	ld	ra,8(sp)
 25a:	6402                	ld	s0,0(sp)
 25c:	0141                	addi	sp,sp,16
 25e:	8082                	ret

0000000000000260 <sys_spawn>:
 260:	7179                	addi	sp,sp,-48
 262:	f406                	sd	ra,40(sp)
 264:	f022                	sd	s0,32(sp)
 266:	1800                	addi	s0,sp,48
 268:	fea43423          	sd	a0,-24(s0)
 26c:	feb43023          	sd	a1,-32(s0)
 270:	87b2                	mv	a5,a2
 272:	8736                	mv	a4,a3
 274:	fcf42e23          	sw	a5,-36(s0)
 278:	87ba                	mv	a5,a4
 27a:	fcf40da3          	sb	a5,-37(s0)
 27e:	fe843783          	ld	a5,-24(s0)
 282:	fe043603          	ld	a2,-32(s0)

0000000000000286 <.LVL41>:
 286:	fdc46683          	lwu	a3,-36(s0)

000000000000028a <.LVL42>:
 28a:	fdb44703          	lbu	a4,-37(s0)
 28e:	85be                	mv	a1,a5

0000000000000290 <.LVL43>:
 290:	4501                	li	a0,0

0000000000000292 <.LVL44>:
 292:	00000097          	auipc	ra,0x0
 296:	000080e7          	jalr	ra # 292 <.LVL44>

000000000000029a <.LVL45>:
 29a:	87aa                	mv	a5,a0
 29c:	2781                	sext.w	a5,a5
 29e:	853e                	mv	a0,a5
 2a0:	70a2                	ld	ra,40(sp)
 2a2:	7402                	ld	s0,32(sp)

00000000000002a4 <.LVL46>:
 2a4:	6145                	addi	sp,sp,48

00000000000002a6 <.LVL47>:
 2a6:	8082                	ret

00000000000002a8 <sys_getpid>:
 2a8:	1141                	addi	sp,sp,-16
 2aa:	e406                	sd	ra,8(sp)
 2ac:	e022                	sd	s0,0(sp)
 2ae:	0800                	addi	s0,sp,16
 2b0:	4701                	li	a4,0
 2b2:	4681                	li	a3,0
 2b4:	4601                	li	a2,0
 2b6:	4581                	li	a1,0
 2b8:	4519                	li	a0,6
 2ba:	00000097          	auipc	ra,0x0
 2be:	000080e7          	jalr	ra # 2ba <sys_getpid+0x12>

00000000000002c2 <.LVL48>:
 2c2:	87aa                	mv	a5,a0
 2c4:	2781                	sext.w	a5,a5
 2c6:	853e                	mv	a0,a5
 2c8:	60a2                	ld	ra,8(sp)
 2ca:	6402                	ld	s0,0(sp)
 2cc:	0141                	addi	sp,sp,16
 2ce:	8082                	ret

00000000000002d0 <sys_clear>:
 2d0:	1141                	addi	sp,sp,-16
 2d2:	e406                	sd	ra,8(sp)
 2d4:	e022                	sd	s0,0(sp)
 2d6:	0800                	addi	s0,sp,16
 2d8:	4701                	li	a4,0
 2da:	4681                	li	a3,0
 2dc:	4601                	li	a2,0
 2de:	4581                	li	a1,0
 2e0:	456d                	li	a0,27
 2e2:	00000097          	auipc	ra,0x0
 2e6:	000080e7          	jalr	ra # 2e2 <sys_clear+0x12>

00000000000002ea <.LVL49>:
 2ea:	0001                	nop
 2ec:	60a2                	ld	ra,8(sp)
 2ee:	6402                	ld	s0,0(sp)
 2f0:	0141                	addi	sp,sp,16
 2f2:	8082                	ret

00000000000002f4 <sys_ps>:
 2f4:	1141                	addi	sp,sp,-16
 2f6:	e406                	sd	ra,8(sp)
 2f8:	e022                	sd	s0,0(sp)
 2fa:	0800                	addi	s0,sp,16
 2fc:	4701                	li	a4,0
 2fe:	4681                	li	a3,0
 300:	4601                	li	a2,0
 302:	4581                	li	a1,0
 304:	4515                	li	a0,5
 306:	00000097          	auipc	ra,0x0
 30a:	000080e7          	jalr	ra # 306 <sys_ps+0x12>

000000000000030e <.LVL50>:
 30e:	0001                	nop
 310:	60a2                	ld	ra,8(sp)
 312:	6402                	ld	s0,0(sp)
 314:	0141                	addi	sp,sp,16
 316:	8082                	ret

0000000000000318 <sys_exit>:
 318:	1141                	addi	sp,sp,-16
 31a:	e406                	sd	ra,8(sp)
 31c:	e022                	sd	s0,0(sp)
 31e:	0800                	addi	s0,sp,16
 320:	4701                	li	a4,0
 322:	4681                	li	a3,0
 324:	4601                	li	a2,0
 326:	4581                	li	a1,0
 328:	4505                	li	a0,1
 32a:	00000097          	auipc	ra,0x0
 32e:	000080e7          	jalr	ra # 32a <sys_exit+0x12>

0000000000000332 <.LVL51>:
 332:	60a2                	ld	ra,8(sp)
 334:	6402                	ld	s0,0(sp)
 336:	0141                	addi	sp,sp,16
 338:	8082                	ret

000000000000033a <sys_waitpid>:
 33a:	1101                	addi	sp,sp,-32
 33c:	ec06                	sd	ra,24(sp)
 33e:	e822                	sd	s0,16(sp)
 340:	1000                	addi	s0,sp,32
 342:	87aa                	mv	a5,a0
 344:	fef42623          	sw	a5,-20(s0)
 348:	fec42783          	lw	a5,-20(s0)
 34c:	4701                	li	a4,0
 34e:	4681                	li	a3,0
 350:	4601                	li	a2,0
 352:	85be                	mv	a1,a5
 354:	4511                	li	a0,4

0000000000000356 <.LVL53>:
 356:	00000097          	auipc	ra,0x0
 35a:	000080e7          	jalr	ra # 356 <.LVL53>

000000000000035e <.LVL54>:
 35e:	87aa                	mv	a5,a0
 360:	2781                	sext.w	a5,a5
 362:	853e                	mv	a0,a5
 364:	60e2                	ld	ra,24(sp)
 366:	6442                	ld	s0,16(sp)
 368:	6105                	addi	sp,sp,32
 36a:	8082                	ret

000000000000036c <sys_kill>:
 36c:	1101                	addi	sp,sp,-32
 36e:	ec06                	sd	ra,24(sp)
 370:	e822                	sd	s0,16(sp)
 372:	1000                	addi	s0,sp,32
 374:	87aa                	mv	a5,a0
 376:	fef42623          	sw	a5,-20(s0)
 37a:	fec42783          	lw	a5,-20(s0)
 37e:	4701                	li	a4,0
 380:	4681                	li	a3,0
 382:	4601                	li	a2,0
 384:	85be                	mv	a1,a5
 386:	450d                	li	a0,3

0000000000000388 <.LVL56>:
 388:	00000097          	auipc	ra,0x0
 38c:	000080e7          	jalr	ra # 388 <.LVL56>

0000000000000390 <.LVL57>:
 390:	87aa                	mv	a5,a0
 392:	2781                	sext.w	a5,a5
 394:	853e                	mv	a0,a5
 396:	60e2                	ld	ra,24(sp)
 398:	6442                	ld	s0,16(sp)
 39a:	6105                	addi	sp,sp,32
 39c:	8082                	ret

000000000000039e <getchar>:
 39e:	1101                	addi	sp,sp,-32
 3a0:	ec06                	sd	ra,24(sp)
 3a2:	e822                	sd	s0,16(sp)
 3a4:	1000                	addi	s0,sp,32

00000000000003a6 <.L35>:
 3a6:	4701                	li	a4,0
 3a8:	4681                	li	a3,0
 3aa:	4601                	li	a2,0
 3ac:	4581                	li	a1,0
 3ae:	4561                	li	a0,24
 3b0:	00000097          	auipc	ra,0x0
 3b4:	000080e7          	jalr	ra # 3b0 <.L35+0xa>

00000000000003b8 <.LVL58>:
 3b8:	87aa                	mv	a5,a0
 3ba:	fef42623          	sw	a5,-20(s0)

00000000000003be <.LVL59>:
 3be:	fec42783          	lw	a5,-20(s0)
 3c2:	0007871b          	sext.w	a4,a5
 3c6:	57fd                	li	a5,-1

00000000000003c8 <.LVL60>:
 3c8:	fcf70fe3          	beq	a4,a5,3a6 <.L35>
 3cc:	fec42783          	lw	a5,-20(s0)
 3d0:	853e                	mv	a0,a5
 3d2:	60e2                	ld	ra,24(sp)
 3d4:	6442                	ld	s0,16(sp)

00000000000003d6 <.LVL61>:
 3d6:	6105                	addi	sp,sp,32

00000000000003d8 <.LVL62>:
 3d8:	8082                	ret

00000000000003da <putchar>:
 3da:	1101                	addi	sp,sp,-32
 3dc:	ec06                	sd	ra,24(sp)
 3de:	e822                	sd	s0,16(sp)
 3e0:	1000                	addi	s0,sp,32
 3e2:	87aa                	mv	a5,a0
 3e4:	fef42623          	sw	a5,-20(s0)
 3e8:	fec42783          	lw	a5,-20(s0)
 3ec:	4701                	li	a4,0
 3ee:	4681                	li	a3,0
 3f0:	4601                	li	a2,0
 3f2:	85be                	mv	a1,a5
 3f4:	4565                	li	a0,25

00000000000003f6 <.LVL64>:
 3f6:	00000097          	auipc	ra,0x0
 3fa:	000080e7          	jalr	ra # 3f6 <.LVL64>

00000000000003fe <.LVL65>:
 3fe:	0001                	nop
 400:	60e2                	ld	ra,24(sp)
 402:	6442                	ld	s0,16(sp)
 404:	6105                	addi	sp,sp,32
 406:	8082                	ret

0000000000000408 <sys_block>:
 408:	1101                	addi	sp,sp,-32
 40a:	ec06                	sd	ra,24(sp)
 40c:	e822                	sd	s0,16(sp)
 40e:	1000                	addi	s0,sp,32
 410:	fea43423          	sd	a0,-24(s0)
 414:	feb43023          	sd	a1,-32(s0)
 418:	fe843783          	ld	a5,-24(s0)
 41c:	fe043603          	ld	a2,-32(s0)
 420:	4701                	li	a4,0
 422:	4681                	li	a3,0
 424:	85be                	mv	a1,a5

0000000000000426 <.LVL67>:
 426:	453d                	li	a0,15

0000000000000428 <.LVL68>:
 428:	00000097          	auipc	ra,0x0
 42c:	000080e7          	jalr	ra # 428 <.LVL68>

0000000000000430 <.LVL69>:
 430:	0001                	nop
 432:	60e2                	ld	ra,24(sp)
 434:	6442                	ld	s0,16(sp)

0000000000000436 <.LVL70>:
 436:	6105                	addi	sp,sp,32

0000000000000438 <.LVL71>:
 438:	8082                	ret

000000000000043a <sys_unblock>:
 43a:	1101                	addi	sp,sp,-32
 43c:	ec06                	sd	ra,24(sp)
 43e:	e822                	sd	s0,16(sp)
 440:	1000                	addi	s0,sp,32
 442:	fea43423          	sd	a0,-24(s0)
 446:	fe843783          	ld	a5,-24(s0)
 44a:	4701                	li	a4,0
 44c:	4681                	li	a3,0
 44e:	4601                	li	a2,0
 450:	85be                	mv	a1,a5
 452:	4541                	li	a0,16

0000000000000454 <.LVL73>:
 454:	00000097          	auipc	ra,0x0
 458:	000080e7          	jalr	ra # 454 <.LVL73>

000000000000045c <.LVL74>:
 45c:	0001                	nop
 45e:	60e2                	ld	ra,24(sp)
 460:	6442                	ld	s0,16(sp)

0000000000000462 <.LVL75>:
 462:	6105                	addi	sp,sp,32

0000000000000464 <.LVL76>:
 464:	8082                	ret

0000000000000466 <sem_signal>:
 466:	1101                	addi	sp,sp,-32
 468:	ec06                	sd	ra,24(sp)
 46a:	e822                	sd	s0,16(sp)
 46c:	1000                	addi	s0,sp,32
 46e:	87aa                	mv	a5,a0
 470:	fef42623          	sw	a5,-20(s0)
 474:	fec42783          	lw	a5,-20(s0)
 478:	4701                	li	a4,0
 47a:	4681                	li	a3,0
 47c:	4601                	li	a2,0
 47e:	85be                	mv	a1,a5
 480:	02900513          	li	a0,41

0000000000000484 <.LVL78>:
 484:	00000097          	auipc	ra,0x0
 488:	000080e7          	jalr	ra # 484 <.LVL78>

000000000000048c <.LVL79>:
 48c:	0001                	nop
 48e:	60e2                	ld	ra,24(sp)
 490:	6442                	ld	s0,16(sp)
 492:	6105                	addi	sp,sp,32
 494:	8082                	ret

0000000000000496 <sem_wait>:
 496:	1101                	addi	sp,sp,-32
 498:	ec06                	sd	ra,24(sp)
 49a:	e822                	sd	s0,16(sp)
 49c:	1000                	addi	s0,sp,32
 49e:	87aa                	mv	a5,a0
 4a0:	872e                	mv	a4,a1
 4a2:	fef42623          	sw	a5,-20(s0)
 4a6:	87ba                	mv	a5,a4
 4a8:	fef42423          	sw	a5,-24(s0)
 4ac:	fec42783          	lw	a5,-20(s0)
 4b0:	fe842603          	lw	a2,-24(s0)
 4b4:	4701                	li	a4,0
 4b6:	4681                	li	a3,0
 4b8:	85be                	mv	a1,a5

00000000000004ba <.LVL81>:
 4ba:	02800513          	li	a0,40

00000000000004be <.LVL82>:
 4be:	00000097          	auipc	ra,0x0
 4c2:	000080e7          	jalr	ra # 4be <.LVL82>

00000000000004c6 <.LVL83>:
 4c6:	0001                	nop
 4c8:	60e2                	ld	ra,24(sp)
 4ca:	6442                	ld	s0,16(sp)
 4cc:	6105                	addi	sp,sp,32
 4ce:	8082                	ret

00000000000004d0 <sem_broadcast>:
 4d0:	1101                	addi	sp,sp,-32
 4d2:	ec06                	sd	ra,24(sp)
 4d4:	e822                	sd	s0,16(sp)
 4d6:	1000                	addi	s0,sp,32
 4d8:	87aa                	mv	a5,a0
 4da:	fef42623          	sw	a5,-20(s0)
 4de:	fec42783          	lw	a5,-20(s0)
 4e2:	4701                	li	a4,0
 4e4:	4681                	li	a3,0
 4e6:	4601                	li	a2,0
 4e8:	85be                	mv	a1,a5
 4ea:	02a00513          	li	a0,42

00000000000004ee <.LVL85>:
 4ee:	00000097          	auipc	ra,0x0
 4f2:	000080e7          	jalr	ra # 4ee <.LVL85>

00000000000004f6 <.LVL86>:
 4f6:	0001                	nop
 4f8:	60e2                	ld	ra,24(sp)
 4fa:	6442                	ld	s0,16(sp)
 4fc:	6105                	addi	sp,sp,32
 4fe:	8082                	ret

0000000000000500 <barrier_wait>:
 500:	1101                	addi	sp,sp,-32
 502:	ec06                	sd	ra,24(sp)
 504:	e822                	sd	s0,16(sp)
 506:	1000                	addi	s0,sp,32
 508:	87aa                	mv	a5,a0
 50a:	872e                	mv	a4,a1
 50c:	fef42623          	sw	a5,-20(s0)
 510:	87ba                	mv	a5,a4
 512:	fef42423          	sw	a5,-24(s0)
 516:	fec42783          	lw	a5,-20(s0)
 51a:	fe842603          	lw	a2,-24(s0)
 51e:	4701                	li	a4,0
 520:	4681                	li	a3,0
 522:	85be                	mv	a1,a5

0000000000000524 <.LVL88>:
 524:	02b00513          	li	a0,43

0000000000000528 <.LVL89>:
 528:	00000097          	auipc	ra,0x0
 52c:	000080e7          	jalr	ra # 528 <.LVL89>

0000000000000530 <.LVL90>:
 530:	0001                	nop
 532:	60e2                	ld	ra,24(sp)
 534:	6442                	ld	s0,16(sp)
 536:	6105                	addi	sp,sp,32
 538:	8082                	ret

000000000000053a <sys_mbox_open>:
 53a:	1101                	addi	sp,sp,-32
 53c:	ec06                	sd	ra,24(sp)
 53e:	e822                	sd	s0,16(sp)
 540:	1000                	addi	s0,sp,32
 542:	fea43423          	sd	a0,-24(s0)
 546:	fe843783          	ld	a5,-24(s0)
 54a:	4701                	li	a4,0
 54c:	4681                	li	a3,0
 54e:	4601                	li	a2,0
 550:	85be                	mv	a1,a5
 552:	02c00513          	li	a0,44

0000000000000556 <.LVL92>:
 556:	00000097          	auipc	ra,0x0
 55a:	000080e7          	jalr	ra # 556 <.LVL92>

000000000000055e <.LVL93>:
 55e:	87aa                	mv	a5,a0
 560:	2781                	sext.w	a5,a5
 562:	853e                	mv	a0,a5
 564:	60e2                	ld	ra,24(sp)
 566:	6442                	ld	s0,16(sp)

0000000000000568 <.LVL94>:
 568:	6105                	addi	sp,sp,32

000000000000056a <.LVL95>:
 56a:	8082                	ret

000000000000056c <sys_mbox_close>:
 56c:	1101                	addi	sp,sp,-32
 56e:	ec06                	sd	ra,24(sp)
 570:	e822                	sd	s0,16(sp)
 572:	1000                	addi	s0,sp,32
 574:	87aa                	mv	a5,a0
 576:	fef42623          	sw	a5,-20(s0)
 57a:	fec42783          	lw	a5,-20(s0)
 57e:	4701                	li	a4,0
 580:	4681                	li	a3,0
 582:	4601                	li	a2,0
 584:	85be                	mv	a1,a5
 586:	02d00513          	li	a0,45

000000000000058a <.LVL97>:
 58a:	00000097          	auipc	ra,0x0
 58e:	000080e7          	jalr	ra # 58a <.LVL97>

0000000000000592 <.LVL98>:
 592:	0001                	nop
 594:	60e2                	ld	ra,24(sp)
 596:	6442                	ld	s0,16(sp)
 598:	6105                	addi	sp,sp,32
 59a:	8082                	ret

000000000000059c <sys_mbox_send>:
 59c:	1101                	addi	sp,sp,-32
 59e:	ec06                	sd	ra,24(sp)
 5a0:	e822                	sd	s0,16(sp)
 5a2:	1000                	addi	s0,sp,32
 5a4:	87aa                	mv	a5,a0
 5a6:	feb43023          	sd	a1,-32(s0)
 5aa:	8732                	mv	a4,a2
 5ac:	fef42623          	sw	a5,-20(s0)
 5b0:	87ba                	mv	a5,a4
 5b2:	fef42423          	sw	a5,-24(s0)
 5b6:	fec42783          	lw	a5,-20(s0)
 5ba:	fe043603          	ld	a2,-32(s0)

00000000000005be <.LVL100>:
 5be:	fe842683          	lw	a3,-24(s0)
 5c2:	4701                	li	a4,0
 5c4:	85be                	mv	a1,a5

00000000000005c6 <.LVL101>:
 5c6:	02e00513          	li	a0,46

00000000000005ca <.LVL102>:
 5ca:	00000097          	auipc	ra,0x0
 5ce:	000080e7          	jalr	ra # 5ca <.LVL102>

00000000000005d2 <.LVL103>:
 5d2:	0001                	nop
 5d4:	60e2                	ld	ra,24(sp)
 5d6:	6442                	ld	s0,16(sp)
 5d8:	6105                	addi	sp,sp,32

00000000000005da <.LVL104>:
 5da:	8082                	ret

00000000000005dc <sys_mbox_recv>:
 5dc:	1101                	addi	sp,sp,-32
 5de:	ec06                	sd	ra,24(sp)
 5e0:	e822                	sd	s0,16(sp)
 5e2:	1000                	addi	s0,sp,32
 5e4:	87aa                	mv	a5,a0
 5e6:	feb43023          	sd	a1,-32(s0)
 5ea:	8732                	mv	a4,a2
 5ec:	fef42623          	sw	a5,-20(s0)
 5f0:	87ba                	mv	a5,a4
 5f2:	fef42423          	sw	a5,-24(s0)
 5f6:	fec42783          	lw	a5,-20(s0)
 5fa:	fe043603          	ld	a2,-32(s0)

00000000000005fe <.LVL106>:
 5fe:	fe842683          	lw	a3,-24(s0)
 602:	4701                	li	a4,0
 604:	85be                	mv	a1,a5

0000000000000606 <.LVL107>:
 606:	02f00513          	li	a0,47

000000000000060a <.LVL108>:
 60a:	00000097          	auipc	ra,0x0
 60e:	000080e7          	jalr	ra # 60a <.LVL108>

0000000000000612 <.LVL109>:
 612:	0001                	nop
 614:	60e2                	ld	ra,24(sp)
 616:	6442                	ld	s0,16(sp)
 618:	6105                	addi	sp,sp,32

000000000000061a <.LVL110>:
 61a:	8082                	ret

000000000000061c <sys_scroll>:
 61c:	1141                	addi	sp,sp,-16
 61e:	e406                	sd	ra,8(sp)
 620:	e022                	sd	s0,0(sp)
 622:	0800                	addi	s0,sp,16
 624:	4701                	li	a4,0
 626:	4681                	li	a3,0
 628:	4601                	li	a2,0
 62a:	4581                	li	a1,0
 62c:	03000513          	li	a0,48
 630:	00000097          	auipc	ra,0x0
 634:	000080e7          	jalr	ra # 630 <sys_scroll+0x14>

0000000000000638 <.LVL111>:
 638:	0001                	nop
 63a:	60a2                	ld	ra,8(sp)
 63c:	6402                	ld	s0,0(sp)
 63e:	0141                	addi	sp,sp,16
 640:	8082                	ret

0000000000000642 <sys_taskset>:
 642:	1101                	addi	sp,sp,-32
 644:	ec06                	sd	ra,24(sp)
 646:	e822                	sd	s0,16(sp)
 648:	1000                	addi	s0,sp,32
 64a:	87aa                	mv	a5,a0
 64c:	872e                	mv	a4,a1
 64e:	fef407a3          	sb	a5,-17(s0)
 652:	87ba                	mv	a5,a4
 654:	fef42423          	sw	a5,-24(s0)
 658:	fef44783          	lbu	a5,-17(s0)
 65c:	fe842603          	lw	a2,-24(s0)
 660:	4701                	li	a4,0
 662:	4681                	li	a3,0
 664:	85be                	mv	a1,a5

0000000000000666 <.LVL113>:
 666:	03100513          	li	a0,49

000000000000066a <.LVL114>:
 66a:	00000097          	auipc	ra,0x0
 66e:	000080e7          	jalr	ra # 66a <.LVL114>

0000000000000672 <.LVL115>:
 672:	0001                	nop
 674:	60e2                	ld	ra,24(sp)
 676:	6442                	ld	s0,16(sp)
 678:	6105                	addi	sp,sp,32
 67a:	8082                	ret

invoke_syscall.o:     file format elf64-littleriscv


Disassembly of section .text:

0000000000000000 <invoke_syscall-0x2>:
   0:	0001                	nop

0000000000000002 <invoke_syscall>:
   2:	88aa                	mv	a7,a0
   4:	852e                	mv	a0,a1
   6:	85b2                	mv	a1,a2
   8:	8636                	mv	a2,a3
   a:	86ba                	mv	a3,a4
   c:	00000073          	ecall
  10:	8082                	ret
	...

time.o:     file format elf64-littleriscv


Disassembly of section .text:

0000000000000000 <clock>:
   0:	1141                	addi	sp,sp,-16
   2:	e406                	sd	ra,8(sp)
   4:	e022                	sd	s0,0(sp)
   6:	0800                	addi	s0,sp,16
   8:	00000097          	auipc	ra,0x0
   c:	000080e7          	jalr	ra # 8 <clock+0x8>

0000000000000010 <.LVL0>:
  10:	87aa                	mv	a5,a0
  12:	853e                	mv	a0,a5
  14:	60a2                	ld	ra,8(sp)
  16:	6402                	ld	s0,0(sp)
  18:	0141                	addi	sp,sp,16
  1a:	8082                	ret

mailbox.o:     file format elf64-littleriscv


Disassembly of section .text:

0000000000000000 <mbox_open>:
   0:	1101                	addi	sp,sp,-32
   2:	ec06                	sd	ra,24(sp)
   4:	e822                	sd	s0,16(sp)
   6:	1000                	addi	s0,sp,32
   8:	fea43423          	sd	a0,-24(s0)
   c:	fe843503          	ld	a0,-24(s0)
  10:	00000097          	auipc	ra,0x0
  14:	000080e7          	jalr	ra # 10 <mbox_open+0x10>

0000000000000018 <.LVL1>:
  18:	87aa                	mv	a5,a0
  1a:	853e                	mv	a0,a5
  1c:	60e2                	ld	ra,24(sp)
  1e:	6442                	ld	s0,16(sp)

0000000000000020 <.LVL2>:
  20:	6105                	addi	sp,sp,32

0000000000000022 <.LVL3>:
  22:	8082                	ret

0000000000000024 <mbox_close>:
  24:	1101                	addi	sp,sp,-32
  26:	ec06                	sd	ra,24(sp)
  28:	e822                	sd	s0,16(sp)
  2a:	1000                	addi	s0,sp,32
  2c:	87aa                	mv	a5,a0
  2e:	fef42623          	sw	a5,-20(s0)
  32:	fec42783          	lw	a5,-20(s0)
  36:	853e                	mv	a0,a5

0000000000000038 <.LVL5>:
  38:	00000097          	auipc	ra,0x0
  3c:	000080e7          	jalr	ra # 38 <.LVL5>

0000000000000040 <.LVL6>:
  40:	0001                	nop
  42:	60e2                	ld	ra,24(sp)
  44:	6442                	ld	s0,16(sp)
  46:	6105                	addi	sp,sp,32
  48:	8082                	ret

000000000000004a <mbox_send>:
  4a:	1101                	addi	sp,sp,-32
  4c:	ec06                	sd	ra,24(sp)
  4e:	e822                	sd	s0,16(sp)
  50:	1000                	addi	s0,sp,32
  52:	87aa                	mv	a5,a0
  54:	feb43023          	sd	a1,-32(s0)
  58:	8732                	mv	a4,a2
  5a:	fef42623          	sw	a5,-20(s0)
  5e:	87ba                	mv	a5,a4
  60:	fef42423          	sw	a5,-24(s0)
  64:	fe842703          	lw	a4,-24(s0)
  68:	fec42783          	lw	a5,-20(s0)
  6c:	863a                	mv	a2,a4

000000000000006e <.LVL8>:
  6e:	fe043583          	ld	a1,-32(s0)
  72:	853e                	mv	a0,a5

0000000000000074 <.LVL9>:
  74:	00000097          	auipc	ra,0x0
  78:	000080e7          	jalr	ra # 74 <.LVL9>

000000000000007c <.LVL10>:
  7c:	0001                	nop
  7e:	60e2                	ld	ra,24(sp)
  80:	6442                	ld	s0,16(sp)
  82:	6105                	addi	sp,sp,32

0000000000000084 <.LVL11>:
  84:	8082                	ret

0000000000000086 <mbox_recv>:
  86:	1101                	addi	sp,sp,-32
  88:	ec06                	sd	ra,24(sp)
  8a:	e822                	sd	s0,16(sp)
  8c:	1000                	addi	s0,sp,32
  8e:	87aa                	mv	a5,a0
  90:	feb43023          	sd	a1,-32(s0)
  94:	8732                	mv	a4,a2
  96:	fef42623          	sw	a5,-20(s0)
  9a:	87ba                	mv	a5,a4
  9c:	fef42423          	sw	a5,-24(s0)
  a0:	fe842703          	lw	a4,-24(s0)
  a4:	fec42783          	lw	a5,-20(s0)
  a8:	863a                	mv	a2,a4

00000000000000aa <.LVL13>:
  aa:	fe043583          	ld	a1,-32(s0)
  ae:	853e                	mv	a0,a5

00000000000000b0 <.LVL14>:
  b0:	00000097          	auipc	ra,0x0
  b4:	000080e7          	jalr	ra # b0 <.LVL14>

00000000000000b8 <.LVL15>:
  b8:	0001                	nop
  ba:	60e2                	ld	ra,24(sp)
  bc:	6442                	ld	s0,16(sp)
  be:	6105                	addi	sp,sp,32

00000000000000c0 <.LVL16>:
  c0:	8082                	ret

rand.o:     file format elf64-littleriscv


Disassembly of section .text:

0000000000000000 <srand>:
   0:	1101                	addi	sp,sp,-32
   2:	ec22                	sd	s0,24(sp)
   4:	1000                	addi	s0,sp,32
   6:	87aa                	mv	a5,a0
   8:	fef42623          	sw	a5,-20(s0)
   c:	fec42703          	lw	a4,-20(s0)
  10:	00000797          	auipc	a5,0x0
  14:	00078793          	mv	a5,a5
  18:	c398                	sw	a4,0(a5)
  1a:	0001                	nop
  1c:	6462                	ld	s0,24(sp)
  1e:	6105                	addi	sp,sp,32
  20:	8082                	ret

0000000000000022 <rand>:
  22:	1101                	addi	sp,sp,-32
  24:	ec22                	sd	s0,24(sp)
  26:	1000                	addi	s0,sp,32
  28:	00000797          	auipc	a5,0x0
  2c:	00078793          	mv	a5,a5
  30:	439c                	lw	a5,0(a5)
  32:	873e                	mv	a4,a5
  34:	00000797          	auipc	a5,0x0
  38:	00078793          	mv	a5,a5
  3c:	639c                	ld	a5,0(a5)
  3e:	02f707b3          	mul	a5,a4,a5
  42:	07ad                	addi	a5,a5,11
  44:	fef43423          	sd	a5,-24(s0)

0000000000000048 <.LVL1>:
  48:	fe843783          	ld	a5,-24(s0)
  4c:	0007871b          	sext.w	a4,a5
  50:	800007b7          	lui	a5,0x80000

0000000000000054 <.LVL2>:
  54:	fff7c793          	not	a5,a5
  58:	8ff9                	and	a5,a5,a4
  5a:	0007871b          	sext.w	a4,a5
  5e:	00000797          	auipc	a5,0x0
  62:	00078793          	mv	a5,a5
  66:	c398                	sw	a4,0(a5)
  68:	00000797          	auipc	a5,0x0
  6c:	00078793          	mv	a5,a5
  70:	439c                	lw	a5,0(a5)
  72:	853e                	mv	a0,a5
  74:	6462                	ld	s0,24(sp)

0000000000000076 <.LVL3>:
  76:	6105                	addi	sp,sp,32

0000000000000078 <.LVL4>:
  78:	8082                	ret

atol.o:     file format elf64-littleriscv


Disassembly of section .text:

0000000000000000 <atol>:
   0:	7179                	addi	sp,sp,-48
   2:	f422                	sd	s0,40(sp)
   4:	1800                	addi	s0,sp,48
   6:	fca43c23          	sd	a0,-40(s0)
   a:	47a9                	li	a5,10
   c:	fef42623          	sw	a5,-20(s0)

0000000000000010 <.LVL1>:
  10:	fd843783          	ld	a5,-40(s0)

0000000000000014 <.LVL2>:
  14:	0007c783          	lbu	a5,0(a5)
  18:	873e                	mv	a4,a5
  1a:	03000793          	li	a5,48
  1e:	00f71c63          	bne	a4,a5,36 <.L2>
  22:	fd843783          	ld	a5,-40(s0)
  26:	0785                	addi	a5,a5,1
  28:	0007c783          	lbu	a5,0(a5)
  2c:	873e                	mv	a4,a5
  2e:	07800793          	li	a5,120
  32:	02f70563          	beq	a4,a5,5c <.L3>

0000000000000036 <.L2>:
  36:	fd843783          	ld	a5,-40(s0)
  3a:	0007c783          	lbu	a5,0(a5)
  3e:	873e                	mv	a4,a5
  40:	03000793          	li	a5,48
  44:	02f71463          	bne	a4,a5,6c <.L4>
  48:	fd843783          	ld	a5,-40(s0)
  4c:	0785                	addi	a5,a5,1
  4e:	0007c783          	lbu	a5,0(a5)
  52:	873e                	mv	a4,a5
  54:	05800793          	li	a5,88
  58:	00f71a63          	bne	a4,a5,6c <.L4>

000000000000005c <.L3>:
  5c:	47c1                	li	a5,16
  5e:	fef42623          	sw	a5,-20(s0)

0000000000000062 <.LVL3>:
  62:	fd843783          	ld	a5,-40(s0)

0000000000000066 <.LVL4>:
  66:	0789                	addi	a5,a5,2
  68:	fcf43c23          	sd	a5,-40(s0)

000000000000006c <.L4>:
  6c:	fe043023          	sd	zero,-32(s0)

0000000000000070 <.LVL6>:
  70:	a8fd                	j	16e <.L5>

0000000000000072 <.L13>:
  72:	fd843783          	ld	a5,-40(s0)
  76:	0007c783          	lbu	a5,0(a5)
  7a:	873e                	mv	a4,a5
  7c:	02f00793          	li	a5,47
  80:	02e7fd63          	bgeu	a5,a4,ba <.L6>
  84:	fd843783          	ld	a5,-40(s0)
  88:	0007c783          	lbu	a5,0(a5)
  8c:	873e                	mv	a4,a5
  8e:	03900793          	li	a5,57
  92:	02e7e463          	bltu	a5,a4,ba <.L6>
  96:	fec42703          	lw	a4,-20(s0)
  9a:	fe043783          	ld	a5,-32(s0)
  9e:	02f707b3          	mul	a5,a4,a5
  a2:	fd843703          	ld	a4,-40(s0)
  a6:	00074703          	lbu	a4,0(a4)
  aa:	2701                	sext.w	a4,a4
  ac:	fd07071b          	addiw	a4,a4,-48
  b0:	2701                	sext.w	a4,a4
  b2:	97ba                	add	a5,a5,a4
  b4:	fef43023          	sd	a5,-32(s0)

00000000000000b8 <.LVL7>:
  b8:	a075                	j	164 <.L7>

00000000000000ba <.L6>:
  ba:	fec42783          	lw	a5,-20(s0)
  be:	0007871b          	sext.w	a4,a5
  c2:	47c1                	li	a5,16
  c4:	08f71e63          	bne	a4,a5,160 <.L8>
  c8:	fd843783          	ld	a5,-40(s0)
  cc:	0007c783          	lbu	a5,0(a5)
  d0:	873e                	mv	a4,a5
  d2:	06000793          	li	a5,96
  d6:	02e7fe63          	bgeu	a5,a4,112 <.L9>
  da:	fd843783          	ld	a5,-40(s0)
  de:	0007c783          	lbu	a5,0(a5)
  e2:	873e                	mv	a4,a5
  e4:	06600793          	li	a5,102
  e8:	02e7e563          	bltu	a5,a4,112 <.L9>
  ec:	fec42703          	lw	a4,-20(s0)
  f0:	fe043783          	ld	a5,-32(s0)
  f4:	02f707b3          	mul	a5,a4,a5
  f8:	fd843703          	ld	a4,-40(s0)
  fc:	00074703          	lbu	a4,0(a4)
 100:	2701                	sext.w	a4,a4
 102:	f9f7071b          	addiw	a4,a4,-97
 106:	2701                	sext.w	a4,a4
 108:	97ba                	add	a5,a5,a4
 10a:	07a9                	addi	a5,a5,10
 10c:	fef43023          	sd	a5,-32(s0)

0000000000000110 <.LVL9>:
 110:	a891                	j	164 <.L7>

0000000000000112 <.L9>:
 112:	fd843783          	ld	a5,-40(s0)
 116:	0007c783          	lbu	a5,0(a5)
 11a:	873e                	mv	a4,a5
 11c:	04000793          	li	a5,64
 120:	02e7fe63          	bgeu	a5,a4,15c <.L11>
 124:	fd843783          	ld	a5,-40(s0)
 128:	0007c783          	lbu	a5,0(a5)
 12c:	873e                	mv	a4,a5
 12e:	04600793          	li	a5,70
 132:	02e7e563          	bltu	a5,a4,15c <.L11>
 136:	fec42703          	lw	a4,-20(s0)
 13a:	fe043783          	ld	a5,-32(s0)
 13e:	02f707b3          	mul	a5,a4,a5
 142:	fd843703          	ld	a4,-40(s0)
 146:	00074703          	lbu	a4,0(a4)
 14a:	2701                	sext.w	a4,a4
 14c:	fbf7071b          	addiw	a4,a4,-65
 150:	2701                	sext.w	a4,a4
 152:	97ba                	add	a5,a5,a4
 154:	07a9                	addi	a5,a5,10
 156:	fef43023          	sd	a5,-32(s0)

000000000000015a <.LVL11>:
 15a:	a029                	j	164 <.L7>

000000000000015c <.L11>:
 15c:	4781                	li	a5,0
 15e:	a005                	j	17e <.L12>

0000000000000160 <.L8>:
 160:	4781                	li	a5,0
 162:	a831                	j	17e <.L12>

0000000000000164 <.L7>:
 164:	fd843783          	ld	a5,-40(s0)
 168:	0785                	addi	a5,a5,1
 16a:	fcf43c23          	sd	a5,-40(s0)

000000000000016e <.L5>:
 16e:	fd843783          	ld	a5,-40(s0)
 172:	0007c783          	lbu	a5,0(a5)
 176:	ee079ee3          	bnez	a5,72 <.L13>
 17a:	fe043783          	ld	a5,-32(s0)

000000000000017e <.L12>:
 17e:	853e                	mv	a0,a5
 180:	7422                	ld	s0,40(sp)

0000000000000182 <.LVL15>:
 182:	6145                	addi	sp,sp,48

0000000000000184 <.LVL16>:
 184:	8082                	ret
